(dp1
S'count'
p2
I390
sS'tickets'
p3
(lp4
(dp5
S'name'
p6
S'roberto marangoni'
p7
sS'checkin'
p8
S'28-03-2012 21:29'
p9
sS'payment'
p10
S'Bank transfer'
p11
sS'date'
p12
S'30/12/2012'
p13
sS'email'
p14
S'roberto.marangoni@gmail.com'
p15
sS'pdfcode'
p16
S'OvtG0'
p17
sS'download'
p18
S'09-02-2012 15:27'
p19
sS'trans'
p20
S''
sS'id'
p21
I1
sS'sent'
p22
S'20-02-2012 11:39'
p23
sa(dp24
S'name'
p25
S'siegfried zurcher'
p26
sS'checkin'
p27
I00
sS'payment'
p28
S'Bank transfer'
p29
sS'download'
p30
S'02-02-2012 12:08'
p31
sS'id'
p32
I2
sS'pdfcode'
p33
S'SdNmY'
p34
sS'date'
p35
S'27/01/2012'
p36
sS'trans'
p37
S'000000000684002 '
p38
sS'email'
p39
S'siegfriedzurcher@tiscali.it'
p40
sS'sent'
p41
S'30-01-2012 13:46'
p42
sa(dp43
S'name'
p44
S'siegfried zurcher'
p45
sS'checkin'
p46
I00
sS'payment'
p47
S'Bank transfer'
p48
sS'date'
p49
S'27/01/2012'
p50
sS'email'
p51
S'siegfriedzurcher@tiscali.it'
p52
sS'pdfcode'
p53
S'Q9Irq'
p54
sS'download'
p55
S'02-02-2012 12:07'
p56
sS'trans'
p57
S'000000000684002 '
p58
sS'id'
p59
I3
sS'sent'
p60
S'30-01-2012 13:46'
p61
sa(dp62
S'name'
p63
S'siegfried zurcher'
p64
sS'checkin'
p65
I00
sS'payment'
p66
S'Bank transfer'
p67
sS'download'
p68
S'02-02-2012 12:09'
p69
sS'id'
p70
I4
sS'pdfcode'
p71
S'Obcvz'
p72
sS'date'
p73
S'27/01/2012'
p74
sS'trans'
p75
S'000000000684002 '
p76
sS'email'
p77
S'siegfriedzurcher@tiscali.it'
p78
sS'sent'
p79
S'30-01-2012 13:46'
p80
sa(dp81
S'name'
p82
S'siegfried zurcher'
p83
sS'checkin'
p84
I00
sS'payment'
p85
S'Bank transfer'
p86
sS'date'
p87
S'27/01/2012'
p88
sS'email'
p89
S'siegfriedzurcher@tiscali.it'
p90
sS'pdfcode'
p91
S'xNhOs'
p92
sS'download'
p93
S'02-02-2012 12:09'
p94
sS'trans'
p95
S'000000000684002 '
p96
sS'id'
p97
I5
sS'sent'
p98
S'30-01-2012 13:47'
p99
sa(dp100
S'name'
p101
S'FRANCOIS emilie'
p102
sS'checkin'
p103
I00
sS'payment'
p104
S'Paypal'
p105
sS'date'
p106
S'26/01/2012'
p107
sS'email'
p108
S'fmajo24@hotmail.com'
p109
sS'pdfcode'
p110
S'5KUhb'
p111
sS'download'
p112
I00
sS'trans'
p113
S'9VW135457F1832926'
p114
sS'id'
p115
I6
sS'sent'
p116
S'30-01-2012 17:39'
p117
sa(dp118
S'name'
p119
S'Simone Cella'
p120
sS'checkin'
p121
I00
sS'payment'
p122
S'Paypal'
p123
sS'download'
p124
S'30-01-2012 18:04'
p125
sS'id'
p126
I7
sS'pdfcode'
p127
S'eRJfy'
p128
sS'date'
p129
S'26/01/2012'
p130
sS'trans'
p131
S'0SU433363L423054T'
p132
sS'email'
p133
S' \tsimone.cella@gmail.com'
p134
sS'sent'
p135
S'30-01-2012 17:39'
p136
sa(dp137
S'name'
p138
S'Simone Cella'
p139
sS'checkin'
p140
I00
sS'payment'
p141
S'Paypal'
p142
sS'date'
p143
S'26/01/2012'
p144
sS'email'
p145
S' \tsimone.cella@gmail.com'
p146
sS'pdfcode'
p147
S'Heapv'
p148
sS'download'
p149
S'30-01-2012 18:04'
p150
sS'trans'
p151
S'0SU433363L423054T'
p152
sS'id'
p153
I8
sS'sent'
p154
S'30-01-2012 17:39'
p155
sa(dp156
S'name'
p157
S'Stefano Mantovani'
p158
sS'checkin'
p159
I00
sS'payment'
p160
S'Paypal'
p161
sS'download'
p162
S'30-01-2012 17:41'
p163
sS'id'
p164
I9
sS'pdfcode'
p165
S'WqgTg'
p166
sS'date'
p167
S'26/01/2012'
p168
sS'trans'
p169
S'3KU68963M60274927'
p170
sS'email'
p171
S'stefano.mantovani@gmail.com'
p172
sS'sent'
p173
S'30-01-2012 17:39'
p174
sa(dp175
S'name'
p176
S'Stefano Mantovani'
p177
sS'checkin'
p178
I00
sS'payment'
p179
S'Paypal'
p180
sS'date'
p181
S'26/01/2012'
p182
sS'email'
p183
S'stefano.mantovani@gmail.com'
p184
sS'pdfcode'
p185
S'uJKnU'
p186
sS'download'
p187
S'30-01-2012 17:42'
p188
sS'trans'
p189
S'3KU68963M60274927'
p190
sS'id'
p191
I10
sS'sent'
p192
S'30-01-2012 17:39'
p193
sa(dp194
S'name'
p195
S'Sergio Scrofani'
p196
sS'checkin'
p197
I00
sS'payment'
p198
S'Paypal'
p199
sS'download'
p200
S'30-01-2012 22:49'
p201
sS'id'
p202
I11
sS'pdfcode'
p203
S'0zqfh'
p204
sS'date'
p205
S'26/01/2012'
p206
sS'trans'
p207
S'5SV60869RM071562G'
p208
sS'email'
p209
S'sergio82it@yahoo.it'
p210
sS'sent'
p211
S'30-01-2012 17:40'
p212
sa(dp213
S'name'
p214
S'Massimiliano Basile'
p215
sS'checkin'
p216
I00
sS'payment'
p217
S'Paypal'
p218
sS'date'
p219
S'27/01/2012'
p220
sS'email'
p221
S'maxbasile@hotmail.com'
p222
sS'pdfcode'
p223
S'mg5v7'
p224
sS'download'
p225
I00
sS'trans'
p226
S'8MH878677K767140J'
p227
sS'id'
p228
I12
sS'sent'
p229
S'01-02-2012 18:08'
p230
sa(dp231
S'name'
p232
S'Sebastien Levy'
p233
sS'checkin'
p234
I00
sS'payment'
p235
S'Paypal'
p236
sS'download'
p237
S'24-02-2012 14:49'
p238
sS'id'
p239
I13
sS'pdfcode'
p240
S'W8mOw'
p241
sS'date'
p242
S'27/01/2012'
p243
sS'trans'
p244
S'14A49121T1168483S'
p245
sS'email'
p246
S' \tlevy.seb@gmail.com'
p247
sS'sent'
p248
S'30-01-2012 17:40'
p249
sa(dp250
S'name'
p251
S'Alice Domenis'
p252
sS'checkin'
p253
I00
sS'payment'
p254
S'Paypal'
p255
sS'date'
p256
S'27/01/2012'
p257
sS'email'
p258
S'alice.domenis@gmail.com'
p259
sS'pdfcode'
p260
S'LqJsw'
p261
sS'download'
p262
S'24-02-2012 09:40'
p263
sS'trans'
p264
S'1UY92402RL200060M'
p265
sS'id'
p266
I14
sS'sent'
p267
S'30-01-2012 17:40'
p268
sa(dp269
S'name'
p270
S'Alice Domenis'
p271
sS'checkin'
p272
I00
sS'payment'
p273
S'Paypal'
p274
sS'download'
p275
S'30-01-2012 18:07'
p276
sS'id'
p277
I15
sS'pdfcode'
p278
S'YBN0G'
p279
sS'date'
p280
S'27/01/2012'
p281
sS'trans'
p282
S'1UY92402RL200060M'
p283
sS'email'
p284
S'alice.domenis@gmail.com'
p285
sS'sent'
p286
S'30-01-2012 17:40'
p287
sa(dp288
S'name'
p289
S'Alice Domenis'
p290
sS'checkin'
p291
I00
sS'payment'
p292
S'Paypal'
p293
sS'date'
p294
S'27/01/2012'
p295
sS'email'
p296
S'alice.domenis@gmail.com'
p297
sS'pdfcode'
p298
S'yAbo3'
p299
sS'download'
p300
S'30-01-2012 18:07'
p301
sS'trans'
p302
S'1UY92402RL200060M'
p303
sS'id'
p304
I16
sS'sent'
p305
S'30-01-2012 17:40'
p306
sa(dp307
S'name'
p308
S'Alice Domenis'
p309
sS'checkin'
p310
I00
sS'payment'
p311
S'Paypal'
p312
sS'download'
p313
S'30-01-2012 18:06'
p314
sS'id'
p315
I17
sS'pdfcode'
p316
S'rqCL1'
p317
sS'date'
p318
S'27/01/2012'
p319
sS'trans'
p320
S'1UY92402RL200060M'
p321
sS'email'
p322
S'alice.domenis@gmail.com'
p323
sS'sent'
p324
S'30-01-2012 17:40'
p325
sa(dp326
S'name'
p327
S'Alice Domenis'
p328
sS'checkin'
p329
I00
sS'payment'
p330
S'Paypal'
p331
sS'date'
p332
S'27/01/2012'
p333
sS'email'
p334
S'alice.domenis@gmail.com'
p335
sS'pdfcode'
p336
S'c5zR2'
p337
sS'download'
p338
S'30-01-2012 18:06'
p339
sS'trans'
p340
S'1UY92402RL200060M'
p341
sS'id'
p342
I18
sS'sent'
p343
S'30-01-2012 17:41'
p344
sa(dp345
S'name'
p346
S'Luca Ruberto'
p347
sS'checkin'
p348
I00
sS'payment'
p349
S'Paypal'
p350
sS'download'
p351
S'25-02-2012 21:06'
p352
sS'id'
p353
I19
sS'pdfcode'
p354
S'IMiZP'
p355
sS'date'
p356
S'27/01/2012'
p357
sS'trans'
p358
S'83L623290L617943L'
p359
sS'email'
p360
S'luca.ruberto@gmail.com'
p361
sS'sent'
p362
S'30-01-2012 17:41'
p363
sa(dp364
S'name'
p365
S'Massimo Volpati'
p366
sS'checkin'
p367
I00
sS'payment'
p368
S'Paypal'
p369
sS'date'
p370
S'28/01/2012'
p371
sS'email'
p372
S'ziutek@hotmail.com'
p373
sS'pdfcode'
p374
S'v0yQi'
p375
sS'download'
p376
I00
sS'trans'
p377
S'6W827826CK440202P'
p378
sS'id'
p379
I20
sS'sent'
p380
S'30-01-2012 17:41'
p381
sa(dp382
S'name'
p383
S'Massimo Volpati'
p384
sS'checkin'
p385
I00
sS'payment'
p386
S'Paypal'
p387
sS'download'
p388
I00
sS'id'
p389
I21
sS'pdfcode'
p390
S'rIWBO'
p391
sS'date'
p392
S'28/01/2012'
p393
sS'trans'
p394
S'6W827826CK440202P'
p395
sS'email'
p396
S'ziutek@hotmail.com'
p397
sS'sent'
p398
S'30-01-2012 17:41'
p399
sa(dp400
S'name'
p401
S'Massimo Volpati'
p402
sS'checkin'
p403
I00
sS'payment'
p404
S'Paypal'
p405
sS'date'
p406
S'28/01/2012'
p407
sS'email'
p408
S'ziutek@hotmail.com'
p409
sS'pdfcode'
p410
S'uKHec'
p411
sS'download'
p412
I00
sS'trans'
p413
S'6W827826CK440202P'
p414
sS'id'
p415
I22
sS'sent'
p416
S'30-01-2012 17:41'
p417
sa(dp418
S'name'
p419
S'Sabrina Wulisse'
p420
sS'checkin'
p421
I00
sS'payment'
p422
S'Paypal'
p423
sS'download'
p424
S'01-02-2012 21:13'
p425
sS'id'
p426
I23
sS'pdfcode'
p427
S'rttC1'
p428
sS'date'
p429
S'30/01/2012'
p430
sS'trans'
p431
S'80L83777BG0686149'
p432
sS'email'
p433
S'argenta7@virgilio.it'
p434
sS'sent'
p435
S'30-01-2012 17:41'
p436
sa(dp437
S'name'
p438
S'Stefano Cortinovis'
p439
sS'checkin'
p440
I00
sS'payment'
p441
S'Paypal'
p442
sS'date'
p443
S'30/01/2012'
p444
sS'email'
p445
S'stef.cortinovis@yahoo.com'
p446
sS'pdfcode'
p447
S'LAcag'
p448
sS'download'
p449
S'25-02-2012 09:55'
p450
sS'trans'
p451
S'2MM68473PK0266056'
p452
sS'id'
p453
I24
sS'sent'
p454
S'30-01-2012 17:41'
p455
sa(dp456
S'name'
p457
S'Stefano Cortinovis'
p458
sS'checkin'
p459
I00
sS'payment'
p460
S'Paypal'
p461
sS'download'
p462
S'25-02-2012 09:54'
p463
sS'id'
p464
I25
sS'pdfcode'
p465
S'x0BAZ'
p466
sS'date'
p467
S'30/01/2012'
p468
sS'trans'
p469
S'2MM68473PK0266056'
p470
sS'email'
p471
S'stef.cortinovis@yahoo.com'
p472
sS'sent'
p473
S'30-01-2012 17:41'
p474
sa(dp475
S'name'
p476
S'Paolo Maffei'
p477
sS'checkin'
p478
I00
sS'payment'
p479
S'Paypal'
p480
sS'date'
p481
S'30/01/2012'
p482
sS'email'
p483
S'linusrocks@gmail.com'
p484
sS'pdfcode'
p485
S'g3o2X'
p486
sS'download'
p487
S'25-02-2012 14:32'
p488
sS'trans'
p489
S'0BL47054FR9830349'
p490
sS'id'
p491
I26
sS'sent'
p492
S'17-02-2012 16:36'
p493
sa(dp494
S'name'
p495
S'Massimo Pistolese'
p496
sS'checkin'
p497
I00
sS'payment'
p498
S'Paypal'
p499
sS'download'
p500
S'25-02-2012 21:22'
p501
sS'id'
p502
I27
sS'pdfcode'
p503
S'4c5lR'
p504
sS'date'
p505
S'30/01/2012'
p506
sS'trans'
p507
S'85G39801J6737443E'
p508
sS'email'
p509
S'max.pistolese@gmail.com'
p510
sS'sent'
p511
S'31-01-2012 20:12'
p512
sa(dp513
S'name'
p514
S'Massimo Pistolese'
p515
sS'checkin'
p516
I00
sS'payment'
p517
S'Paypal'
p518
sS'date'
p519
S'30/01/2012'
p520
sS'email'
p521
S'max.pistolese@gmail.com'
p522
sS'pdfcode'
p523
S'HTBa1'
p524
sS'download'
p525
S'25-02-2012 21:22'
p526
sS'trans'
p527
S'85G39801J6737443E'
p528
sS'id'
p529
I28
sS'sent'
p530
S'31-01-2012 20:12'
p531
sa(dp532
S'name'
p533
S'Daniel LABATUT'
p534
sS'checkin'
p535
I00
sS'payment'
p536
S'Paypal'
p537
sS'download'
p538
S'03-02-2012 08:52'
p539
sS'id'
p540
I29
sS'pdfcode'
p541
S'zplsA'
p542
sS'date'
p543
S'31/01/2012'
p544
sS'trans'
p545
S'0LH6038222194212D'
p546
sS'email'
p547
S'jegagneplus@yahoo.fr'
p548
sS'sent'
p549
S'31-01-2012 20:12'
p550
sa(dp551
S'name'
p552
S'Daniel LABATUT'
p553
sS'checkin'
p554
I00
sS'payment'
p555
S'Paypal'
p556
sS'date'
p557
S'31/01/2012'
p558
sS'email'
p559
S'jegagneplus@yahoo.fr'
p560
sS'pdfcode'
p561
S'1eZci'
p562
sS'download'
p563
S'03-02-2012 08:52'
p564
sS'trans'
p565
S'0LH6038222194212D'
p566
sS'id'
p567
I30
sS'sent'
p568
S'31-01-2012 20:12'
p569
sa(dp570
S'name'
p571
S'Daniel LABATUT'
p572
sS'checkin'
p573
I00
sS'payment'
p574
S'Paypal'
p575
sS'download'
p576
S'05-02-2012 10:29'
p577
sS'id'
p578
I31
sS'pdfcode'
p579
S'xTPzC'
p580
sS'date'
p581
S'31/01/2012'
p582
sS'trans'
p583
S'0LH6038222194212D'
p584
sS'email'
p585
S'jegagneplus@yahoo.fr'
p586
sS'sent'
p587
S'31-01-2012 20:13'
p588
sa(dp589
S'name'
p590
S'Daniel LABATUT'
p591
sS'checkin'
p592
I00
sS'payment'
p593
S'Paypal'
p594
sS'date'
p595
S'31/01/2012'
p596
sS'email'
p597
S'jegagneplus@yahoo.fr'
p598
sS'pdfcode'
p599
S'AqWC4'
p600
sS'download'
p601
S'03-02-2012 08:51'
p602
sS'trans'
p603
S'0LH6038222194212D'
p604
sS'id'
p605
I32
sS'sent'
p606
S'31-01-2012 20:13'
p607
sa(dp608
S'name'
p609
S'Daniel LABATUT'
p610
sS'checkin'
p611
I00
sS'payment'
p612
S'Paypal'
p613
sS'download'
p614
S'03-02-2012 08:51'
p615
sS'id'
p616
I33
sS'pdfcode'
p617
S'q0dxF'
p618
sS'date'
p619
S'31/01/2012'
p620
sS'trans'
p621
S'0LH6038222194212D'
p622
sS'email'
p623
S'jegagneplus@yahoo.fr'
p624
sS'sent'
p625
S'31-01-2012 20:13'
p626
sa(dp627
S'name'
p628
S'Massimiliano Vezzoli'
p629
sS'checkin'
p630
I00
sS'payment'
p631
S'Paypal'
p632
sS'date'
p633
S'31/01/2012'
p634
sS'email'
p635
S'massmiliano.vezzoli@yahoo.it'
p636
sS'pdfcode'
p637
S'hFbzk'
p638
sS'download'
p639
I00
sS'trans'
p640
S'4PJ80541LB851934W'
p641
sS'id'
p642
I34
sS'sent'
p643
S'31-01-2012 20:13'
p644
sa(dp645
S'name'
p646
S'Stefania Pannucci'
p647
sS'checkin'
p648
I00
sS'payment'
p649
S'Paypal'
p650
sS'download'
p651
S'22-02-2012 19:00'
p652
sS'id'
p653
I35
sS'pdfcode'
p654
S'TVDJC'
p655
sS'date'
p656
S'31/01/2012'
p657
sS'trans'
p658
S'7MR434916F070162C'
p659
sS'email'
p660
S'stefania.pannucci@gmail.com'
p661
sS'sent'
p662
S'31-01-2012 20:13'
p663
sa(dp664
S'name'
p665
S'Marco Catino'
p666
sS'checkin'
p667
I00
sS'payment'
p668
S'Paypal'
p669
sS'date'
p670
S'31/01/2012'
p671
sS'email'
p672
S'nasvssan@gmail.com'
p673
sS'pdfcode'
p674
S'LlE73'
p675
sS'download'
p676
S'25-02-2012 15:37'
p677
sS'trans'
p678
S'7H358955U7548224E'
p679
sS'id'
p680
I36
sS'sent'
p681
S'31-01-2012 20:18'
p682
sa(dp683
S'name'
p684
S'Tiziano Scolari'
p685
sS'checkin'
p686
I00
sS'payment'
p687
S'Paypal'
p688
sS'download'
p689
S'26-02-2012 13:35'
p690
sS'id'
p691
I37
sS'pdfcode'
p692
S'uhEM2'
p693
sS'date'
p694
S'31/01/2012'
p695
sS'trans'
p696
S'28G6950901332704R'
p697
sS'email'
p698
S' \ttixvox@yahoo.it'
p699
sS'sent'
p700
S'31-01-2012 20:18'
p701
sa(dp702
S'name'
p703
S'Tiziano Scolari'
p704
sS'checkin'
p705
I00
sS'payment'
p706
S'Paypal'
p707
sS'date'
p708
S'31/01/2012'
p709
sS'email'
p710
S' \ttixvox@yahoo.it'
p711
sS'pdfcode'
p712
S'3BPAA'
p713
sS'download'
p714
S'26-02-2012 13:13'
p715
sS'trans'
p716
S'28G6950901332704R'
p717
sS'id'
p718
I38
sS'sent'
p719
S'31-01-2012 20:18'
p720
sa(dp721
S'name'
p722
S'Lorenzo Giocoli'
p723
sS'checkin'
p724
I00
sS'payment'
p725
S'Paypal'
p726
sS'download'
p727
S'25-02-2012 21:48'
p728
sS'id'
p729
I39
sS'pdfcode'
p730
S'mCcjC'
p731
sS'date'
p732
S'31/01/2012'
p733
sS'trans'
p734
S'4P81750093369500C'
p735
sS'email'
p736
S'putiferio@hotmail.com'
p737
sS'sent'
p738
S'19-02-2012 12:17'
p739
sa(dp740
S'name'
p741
S'Steven Cummings'
p742
sS'checkin'
p743
I00
sS'payment'
p744
S'Paypal'
p745
sS'date'
p746
S'01/02/2012'
p747
sS'email'
p748
S'steven.j.cummings@gmail.com'
p749
sS'pdfcode'
p750
S'SA1mz'
p751
sS'download'
p752
I00
sS'trans'
p753
S''
sS'id'
p754
I40
sS'sent'
p755
S'01-02-2012 23:48'
p756
sa(dp757
S'name'
p758
S'Monica Indelicato'
p759
sS'checkin'
p760
I00
sS'payment'
p761
S'Paypal'
p762
sS'download'
p763
S'13-02-2012 13:48'
p764
sS'id'
p765
I41
sS'pdfcode'
p766
S'z70Jo'
p767
sS'date'
p768
S'01/02/2012'
p769
sS'trans'
p770
S''
sS'email'
p771
S'info@monicaindelicato.com'
p772
sS'sent'
p773
S'01-02-2012 23:48'
p774
sa(dp775
S'name'
p776
S'GIAMPAOLO FACOETTI'
p777
sS'checkin'
p778
I00
sS'payment'
p779
S'Paypal'
p780
sS'date'
p781
S'01/02/2012'
p782
sS'email'
p783
S'giampaolo.facoetti@gmail.com'
p784
sS'pdfcode'
p785
S'6xAdv'
p786
sS'download'
p787
S'02-02-2012 10:09'
p788
sS'trans'
p789
S''
sS'id'
p790
I42
sS'sent'
p791
S'01-02-2012 23:48'
p792
sa(dp793
S'name'
p794
S'Pierluigi Cammarano'
p795
sS'checkin'
p796
I00
sS'payment'
p797
S'Paypal'
p798
sS'download'
p799
S'02-02-2012 09:23'
p800
sS'id'
p801
I43
sS'pdfcode'
p802
S'kIJSO'
p803
sS'date'
p804
S'01/02/2012'
p805
sS'trans'
p806
S''
sS'email'
p807
S'pierluigi.cammarano@unicredit.eu'
p808
sS'sent'
p809
S'01-02-2012 23:49'
p810
sa(dp811
S'name'
p812
S'Leandro Montero'
p813
sS'checkin'
p814
I00
sS'payment'
p815
S'Paypal'
p816
sS'date'
p817
S'01/02/2012'
p818
sS'email'
p819
S'lpmontero@gmail.com'
p820
sS'pdfcode'
p821
S'Uqmjy'
p822
sS'download'
p823
S'23-02-2012 13:18'
p824
sS'trans'
p825
S''
sS'id'
p826
I44
sS'sent'
p827
S'01-02-2012 23:49'
p828
sa(dp829
S'name'
p830
S'alisa cabassi '
p831
sS'checkin'
p832
I00
sS'payment'
p833
S'Paypal'
p834
sS'download'
p835
S'22-02-2012 12:58'
p836
sS'id'
p837
I45
sS'pdfcode'
p838
S'qSyTu'
p839
sS'date'
p840
S'01/02/2012'
p841
sS'trans'
p842
S''
sS'email'
p843
S'alisavaga@gmail.com'
p844
sS'sent'
p845
S'01-02-2012 23:49'
p846
sa(dp847
S'name'
p848
S'alisa cabassi '
p849
sS'checkin'
p850
I00
sS'payment'
p851
S'Paypal'
p852
sS'date'
p853
S'01/02/2012'
p854
sS'email'
p855
S'alisavaga@gmail.com'
p856
sS'pdfcode'
p857
S'p7zw0'
p858
sS'download'
p859
S'22-02-2012 12:57'
p860
sS'trans'
p861
S''
sS'id'
p862
I46
sS'sent'
p863
S'01-02-2012 23:49'
p864
sa(dp865
S'name'
p866
S'alisa cabassi '
p867
sS'checkin'
p868
I00
sS'payment'
p869
S'Paypal'
p870
sS'download'
p871
S'22-02-2012 21:04'
p872
sS'id'
p873
I47
sS'pdfcode'
p874
S'6gDZO'
p875
sS'date'
p876
S'01/02/2012'
p877
sS'trans'
p878
S''
sS'email'
p879
S'alisavaga@gmail.com'
p880
sS'sent'
p881
S'01-02-2012 23:49'
p882
sa(dp883
S'name'
p884
S'Marco Antonio Bertolotti'
p885
sS'checkin'
p886
I00
sS'payment'
p887
S'Paypal'
p888
sS'date'
p889
S'01/02/2012'
p890
sS'email'
p891
S'mab68@tiscali.it'
p892
sS'pdfcode'
p893
S'2Qw41'
p894
sS'download'
p895
S'03-02-2012 14:31'
p896
sS'trans'
p897
S''
sS'id'
p898
I48
sS'sent'
p899
S'01-02-2012 23:49'
p900
sa(dp901
S'name'
p902
S'Marco Antonio Bertolotti'
p903
sS'checkin'
p904
I00
sS'payment'
p905
S'Paypal'
p906
sS'download'
p907
S'03-02-2012 14:31'
p908
sS'id'
p909
I49
sS'pdfcode'
p910
S'KG2PS'
p911
sS'date'
p912
S'01/02/2012'
p913
sS'trans'
p914
S''
sS'email'
p915
S'mab68@tiscali.it'
p916
sS'sent'
p917
S'01-02-2012 23:50'
p918
sa(dp919
S'name'
p920
S'Marco Antonio Bertolotti'
p921
sS'checkin'
p922
I00
sS'payment'
p923
S'Paypal'
p924
sS'date'
p925
S'01/02/2012'
p926
sS'email'
p927
S'mab68@tiscali.it'
p928
sS'pdfcode'
p929
S'thpto'
p930
sS'download'
p931
S'03-02-2012 14:30'
p932
sS'trans'
p933
S''
sS'id'
p934
I50
sS'sent'
p935
S'01-02-2012 23:50'
p936
sa(dp937
S'name'
p938
S'Francesco Stingi'
p939
sS'checkin'
p940
I00
sS'payment'
p941
S'Paypal'
p942
sS'download'
p943
S'02-02-2012 08:53'
p944
sS'id'
p945
I51
sS'pdfcode'
p946
S'm9yR3'
p947
sS'date'
p948
S'01/02/2012'
p949
sS'trans'
p950
S''
sS'email'
p951
S'francesco.stingi@gmail.com'
p952
sS'sent'
p953
S'01-02-2012 23:50'
p954
sa(dp955
S'name'
p956
S'S\xc5\x82awomir Bury '
p957
sS'checkin'
p958
I00
sS'payment'
p959
S'Paypal'
p960
sS'date'
p961
S'01/02/2012'
p962
sS'email'
p963
S'slawomir.bury@gmail.com'
p964
sS'pdfcode'
p965
S'muhsA'
p966
sS'download'
p967
S'23-02-2012 18:36'
p968
sS'trans'
p969
S''
sS'id'
p970
I52
sS'sent'
p971
S'01-02-2012 23:50'
p972
sa(dp973
S'name'
p974
S'S\xc5\x82awomir Bury '
p975
sS'checkin'
p976
I00
sS'payment'
p977
S'Paypal'
p978
sS'download'
p979
S'23-02-2012 18:36'
p980
sS'id'
p981
I53
sS'pdfcode'
p982
S'bMhqu'
p983
sS'date'
p984
S'01/02/2012'
p985
sS'trans'
p986
S''
sS'email'
p987
S'slawomir.bury@gmail.com'
p988
sS'sent'
p989
S'01-02-2012 23:50'
p990
sa(dp991
S'name'
p992
S'Riccardo Baitello '
p993
sS'checkin'
p994
I00
sS'payment'
p995
S'Paypal'
p996
sS'date'
p997
S'01/02/2012'
p998
sS'email'
p999
S'achab75@gmail.com'
p1000
sS'pdfcode'
p1001
S'EiNNQ'
p1002
sS'download'
p1003
S'03-02-2012 16:33'
p1004
sS'trans'
p1005
S''
sS'id'
p1006
I54
sS'sent'
p1007
S'01-02-2012 23:50'
p1008
sa(dp1009
S'name'
p1010
S'Lidia Emma Garavaglia '
p1011
sS'checkin'
p1012
I00
sS'payment'
p1013
S'Paypal'
p1014
sS'download'
p1015
S'23-02-2012 18:06'
p1016
sS'id'
p1017
I55
sS'pdfcode'
p1018
S'S86AK'
p1019
sS'date'
p1020
S'01/02/2012'
p1021
sS'trans'
p1022
S''
sS'email'
p1023
S'lidia.garavaglia@gmail.com'
p1024
sS'sent'
p1025
S'01-02-2012 23:50'
p1026
sa(dp1027
S'name'
p1028
S'Stefano Versolatto'
p1029
sS'checkin'
p1030
I00
sS'payment'
p1031
S'Bank transfer'
p1032
sS'download'
p1033
S'24-02-2012 16:29'
p1034
sS'id'
p1035
I56
sS'pdfcode'
p1036
S'hHK61'
p1037
sS'date'
p1038
S'02/02/2012'
p1039
sS'trans'
p1040
S'CRO : 44831496911 '
p1041
sS'email'
p1042
S'SIR.WASTED@GMAIL.com'
p1043
sS'sent'
p1044
S'03-02-2012 10:45'
p1045
sa(dp1046
S'name'
p1047
S'Stefano Versolatto'
p1048
sS'checkin'
p1049
I00
sS'payment'
p1050
S'Bank transfer'
p1051
sS'date'
p1052
S'02/02/2012'
p1053
sS'email'
p1054
S'SIR.WASTED@GMAIL.com'
p1055
sS'pdfcode'
p1056
S'rV8h9'
p1057
sS'download'
p1058
S'24-02-2012 16:32'
p1059
sS'trans'
p1060
S'CRO : 44831496911 '
p1061
sS'id'
p1062
I57
sS'sent'
p1063
S'03-02-2012 10:45'
p1064
sa(dp1065
S'name'
p1066
S'Stefano Versolatto'
p1067
sS'checkin'
p1068
I00
sS'payment'
p1069
S'Bank transfer'
p1070
sS'download'
p1071
S'24-02-2012 16:32'
p1072
sS'id'
p1073
I58
sS'pdfcode'
p1074
S'FK8p3'
p1075
sS'date'
p1076
S'02/02/2012'
p1077
sS'trans'
p1078
S'CRO : 44831496911 '
p1079
sS'email'
p1080
S'SIR.WASTED@GMAIL.com'
p1081
sS'sent'
p1082
S'03-02-2012 10:45'
p1083
sa(dp1084
S'name'
p1085
S'giulio biscaro'
p1086
sS'checkin'
p1087
I00
sS'payment'
p1088
S'Bank transfer'
p1089
sS'date'
p1090
S'3/2/21012'
p1091
sS'email'
p1092
S'giulio.biscaro@gmail.com'
p1093
sS'pdfcode'
p1094
S'SLj0U'
p1095
sS'download'
p1096
S'04-02-2012 12:53'
p1097
sS'trans'
p1098
S'CRO : 91056559012'
p1099
sS'id'
p1100
I59
sS'sent'
p1101
S'03-02-2012 10:45'
p1102
sa(dp1103
S'name'
p1104
S'Anna Luisa Di Napoli'
p1105
sS'checkin'
p1106
I00
sS'payment'
p1107
S'Paypal'
p1108
sS'download'
p1109
S'09-02-2012 17:09'
p1110
sS'id'
p1111
I60
sS'pdfcode'
p1112
S'Wbyr4'
p1113
sS'date'
p1114
S'02/02/2012'
p1115
sS'trans'
p1116
S''
sS'email'
p1117
S'weltenbummlerin84@yahoo.it'
p1118
sS'sent'
p1119
S'04-02-2012 20:22'
p1120
sa(dp1121
S'name'
p1122
S'Veru gasparroni'
p1123
sS'checkin'
p1124
I00
sS'payment'
p1125
S'Paypal'
p1126
sS'date'
p1127
S'02/02/2012'
p1128
sS'email'
p1129
S'buongiornoanoi@gmail.com'
p1130
sS'pdfcode'
p1131
S'pQ6uY'
p1132
sS'download'
p1133
S'24-02-2012 13:39'
p1134
sS'trans'
p1135
S''
sS'id'
p1136
I61
sS'sent'
p1137
S'04-02-2012 20:23'
p1138
sa(dp1139
S'name'
p1140
S'Veru gasparroni'
p1141
sS'checkin'
p1142
I00
sS'payment'
p1143
S'Paypal'
p1144
sS'download'
p1145
S'24-02-2012 13:38'
p1146
sS'id'
p1147
I62
sS'pdfcode'
p1148
S'hPsn9'
p1149
sS'date'
p1150
S'02/02/2012'
p1151
sS'trans'
p1152
S''
sS'email'
p1153
S'buongiornoanoi@gmail.com'
p1154
sS'sent'
p1155
S'04-02-2012 20:23'
p1156
sa(dp1157
S'name'
p1158
S'Federico Spinelli'
p1159
sS'checkin'
p1160
I00
sS'payment'
p1161
S'Paypal'
p1162
sS'date'
p1163
S'02/02/2012'
p1164
sS'email'
p1165
S'fe.spinelli@gmail.com'
p1166
sS'pdfcode'
p1167
S'49ItP'
p1168
sS'download'
p1169
S'25-02-2012 09:56'
p1170
sS'trans'
p1171
S''
sS'id'
p1172
I63
sS'sent'
p1173
S'04-02-2012 20:23'
p1174
sa(dp1175
S'name'
p1176
S'Kristine Fjodorova '
p1177
sS'checkin'
p1178
I00
sS'payment'
p1179
S'Paypal'
p1180
sS'download'
p1181
S'06-02-2012 01:16'
p1182
sS'id'
p1183
I64
sS'pdfcode'
p1184
S'cXYDF'
p1185
sS'date'
p1186
S'02/02/2012'
p1187
sS'trans'
p1188
S''
sS'email'
p1189
S'kristine.fjodorova@gmail.com'
p1190
sS'sent'
p1191
S'04-02-2012 20:23'
p1192
sa(dp1193
S'name'
p1194
S'Kristine Fjodorova '
p1195
sS'checkin'
p1196
I00
sS'payment'
p1197
S'Paypal'
p1198
sS'date'
p1199
S'02/02/2012'
p1200
sS'email'
p1201
S'kristine.fjodorova@gmail.com'
p1202
sS'pdfcode'
p1203
S'VKZ5w'
p1204
sS'download'
p1205
S'06-02-2012 01:18'
p1206
sS'trans'
p1207
S''
sS'id'
p1208
I65
sS'sent'
p1209
S'04-02-2012 20:23'
p1210
sa(dp1211
S'name'
p1212
S'julia joanna jagniewska'
p1213
sS'checkin'
p1214
I00
sS'payment'
p1215
S'Paypal'
p1216
sS'download'
p1217
S'22-02-2012 17:28'
p1218
sS'id'
p1219
I66
sS'pdfcode'
p1220
S'elkHM'
p1221
sS'date'
p1222
S'02/02/2012'
p1223
sS'trans'
p1224
S''
sS'email'
p1225
S'poison_jjj@yahoo.it'
p1226
sS'sent'
p1227
S'04-02-2012 20:23'
p1228
sa(dp1229
S'name'
p1230
S'Armando Pariota'
p1231
sS'checkin'
p1232
I00
sS'payment'
p1233
S'Paypal'
p1234
sS'date'
p1235
S'02/02/2012'
p1236
sS'email'
p1237
S'armando.pariota@gmail.com'
p1238
sS'pdfcode'
p1239
S'9wZNv'
p1240
sS'download'
p1241
S'24-02-2012 19:28'
p1242
sS'trans'
p1243
S''
sS'id'
p1244
I67
sS'sent'
p1245
S'04-02-2012 20:24'
p1246
sa(dp1247
S'name'
p1248
S'Minh Ut Pham'
p1249
sS'checkin'
p1250
I00
sS'payment'
p1251
S'Paypal'
p1252
sS'download'
p1253
S'06-02-2012 14:54'
p1254
sS'id'
p1255
I68
sS'pdfcode'
p1256
S'QXnR6'
p1257
sS'date'
p1258
S'03/02/2012'
p1259
sS'trans'
p1260
S''
sS'email'
p1261
S'Minhut.Pham@gmail.com'
p1262
sS'sent'
p1263
S'04-02-2012 20:24'
p1264
sa(dp1265
S'name'
p1266
S'Simone Cella'
p1267
sS'checkin'
p1268
I00
sS'payment'
p1269
S'Paypal'
p1270
sS'date'
p1271
S'03/02/2012'
p1272
sS'email'
p1273
S'simone.cella@gmail.com'
p1274
sS'pdfcode'
p1275
S'8D5ZB'
p1276
sS'download'
p1277
S'06-02-2012 10:46'
p1278
sS'trans'
p1279
S''
sS'id'
p1280
I69
sS'sent'
p1281
S'04-02-2012 20:26'
p1282
sa(dp1283
S'name'
p1284
S'Simone Cella'
p1285
sS'checkin'
p1286
I00
sS'payment'
p1287
S'Paypal'
p1288
sS'download'
p1289
S'06-02-2012 10:48'
p1290
sS'id'
p1291
I70
sS'pdfcode'
p1292
S'd6Sri'
p1293
sS'date'
p1294
S'03/02/2012'
p1295
sS'trans'
p1296
S''
sS'email'
p1297
S'simone.cella@gmail.com'
p1298
sS'sent'
p1299
S'04-02-2012 20:26'
p1300
sa(dp1301
S'name'
p1302
S'Simone Cella'
p1303
sS'checkin'
p1304
I00
sS'payment'
p1305
S'Paypal'
p1306
sS'date'
p1307
S'03/02/2012'
p1308
sS'email'
p1309
S'simone.cella@gmail.com'
p1310
sS'pdfcode'
p1311
S'8tvSb'
p1312
sS'download'
p1313
S'06-02-2012 10:34'
p1314
sS'trans'
p1315
S''
sS'id'
p1316
I71
sS'sent'
p1317
S'04-02-2012 20:26'
p1318
sa(dp1319
S'name'
p1320
S'Marco Petino'
p1321
sS'checkin'
p1322
I00
sS'payment'
p1323
S'Paypal'
p1324
sS'download'
p1325
S'05-02-2012 17:27'
p1326
sS'id'
p1327
I72
sS'pdfcode'
p1328
S'Nf4TU'
p1329
sS'date'
p1330
S'03/02/2012'
p1331
sS'trans'
p1332
S''
sS'email'
p1333
S'marco@petino.it'
p1334
sS'sent'
p1335
S'04-02-2012 20:26'
p1336
sa(dp1337
S'name'
p1338
S'Roberto Vola Gera'
p1339
sS'checkin'
p1340
I00
sS'payment'
p1341
S'Paypal'
p1342
sS'date'
p1343
S'03/02/2012'
p1344
sS'email'
p1345
S'roberto.volagera@libero.it'
p1346
sS'pdfcode'
p1347
S'maqZ4'
p1348
sS'download'
p1349
S'23-02-2012 21:46'
p1350
sS'trans'
p1351
S''
sS'id'
p1352
I73
sS'sent'
p1353
S'04-02-2012 20:26'
p1354
sa(dp1355
S'name'
p1356
S'Luca Spinello'
p1357
sS'checkin'
p1358
I00
sS'payment'
p1359
S'Bank transfer'
p1360
sS'download'
p1361
S'07-02-2012 10:55'
p1362
sS'id'
p1363
I74
sS'pdfcode'
p1364
S'lIfAL'
p1365
sS'date'
p1366
S'04/02/2012'
p1367
sS'trans'
p1368
S''
sS'email'
p1369
S'spino1981@gmail.com'
p1370
sS'sent'
p1371
S'04-02-2012 20:27'
p1372
sa(dp1373
S'name'
p1374
S'Luca Spinello'
p1375
sS'checkin'
p1376
I00
sS'payment'
p1377
S'Bank transfer'
p1378
sS'date'
p1379
S'04/02/2012'
p1380
sS'email'
p1381
S'spino1981@gmail.com'
p1382
sS'pdfcode'
p1383
S'VZhOA'
p1384
sS'download'
p1385
S'24-02-2012 09:28'
p1386
sS'trans'
p1387
S''
sS'id'
p1388
I75
sS'sent'
p1389
S'04-02-2012 20:27'
p1390
sa(dp1391
S'name'
p1392
S'Eszter Badics'
p1393
sS'checkin'
p1394
I00
sS'payment'
p1395
S'Paypal'
p1396
sS'download'
p1397
S'23-02-2012 14:28'
p1398
sS'id'
p1399
I76
sS'pdfcode'
p1400
S'GU3xM'
p1401
sS'date'
p1402
S'04/02/2012'
p1403
sS'trans'
p1404
S''
sS'email'
p1405
S'eszter.badics@gmail.com'
p1406
sS'sent'
p1407
S'04-02-2012 20:27'
p1408
sa(dp1409
S'name'
p1410
S'Eszter Badics'
p1411
sS'checkin'
p1412
I00
sS'payment'
p1413
S'Paypal'
p1414
sS'date'
p1415
S'04/02/2012'
p1416
sS'email'
p1417
S'eszter.badics@gmail.com'
p1418
sS'pdfcode'
p1419
S'VfjKQ'
p1420
sS'download'
p1421
I00
sS'trans'
p1422
S''
sS'id'
p1423
I77
sS'sent'
p1424
S'04-02-2012 20:27'
p1425
sa(dp1426
S'name'
p1427
S'Marco Aguzzi '
p1428
sS'checkin'
p1429
I00
sS'payment'
p1430
S'Paypal'
p1431
sS'download'
p1432
S'06-02-2012 23:00'
p1433
sS'id'
p1434
I78
sS'pdfcode'
p1435
S'sQYk5'
p1436
sS'date'
p1437
S'04/02/2012'
p1438
sS'trans'
p1439
S''
sS'email'
p1440
S'marco.aguzzi@gmail.com'
p1441
sS'sent'
p1442
S'06-02-2012 19:41'
p1443
sa(dp1444
S'name'
p1445
S'Yulia Titenok'
p1446
sS'checkin'
p1447
I00
sS'payment'
p1448
S'Paypal'
p1449
sS'date'
p1450
S'04/02/2012'
p1451
sS'email'
p1452
S'jtitenok@gmail.com'
p1453
sS'pdfcode'
p1454
S'ojanr'
p1455
sS'download'
p1456
S'23-02-2012 09:34'
p1457
sS'trans'
p1458
S''
sS'id'
p1459
I79
sS'sent'
p1460
S'06-02-2012 19:41'
p1461
sa(dp1462
S'name'
p1463
S'Yulia Titenok'
p1464
sS'checkin'
p1465
I00
sS'payment'
p1466
S'Paypal'
p1467
sS'download'
p1468
S'23-02-2012 09:34'
p1469
sS'id'
p1470
I80
sS'pdfcode'
p1471
S'I0lzj'
p1472
sS'date'
p1473
S'04/02/2012'
p1474
sS'trans'
p1475
S''
sS'email'
p1476
S'jtitenok@gmail.com'
p1477
sS'sent'
p1478
S'06-02-2012 19:41'
p1479
sa(dp1480
S'name'
p1481
S'Paolo Gertosio'
p1482
sS'checkin'
p1483
I00
sS'payment'
p1484
S'Paypal'
p1485
sS'date'
p1486
S'05/02/2012'
p1487
sS'email'
p1488
S'paologertosio@alice.it'
p1489
sS'pdfcode'
p1490
S'VzUOY'
p1491
sS'download'
p1492
S'22-02-2012 19:22'
p1493
sS'trans'
p1494
S''
sS'id'
p1495
I81
sS'sent'
p1496
S'06-02-2012 19:41'
p1497
sa(dp1498
S'name'
p1499
S'Miss J C Palfreman'
p1500
sS'checkin'
p1501
I00
sS'payment'
p1502
S'Paypal'
p1503
sS'download'
p1504
S'23-02-2012 10:09'
p1505
sS'id'
p1506
I82
sS'pdfcode'
p1507
S'zy4Fs'
p1508
sS'date'
p1509
S'05/02/2012'
p1510
sS'trans'
p1511
S''
sS'email'
p1512
S'jo_palf1@hotmail.com'
p1513
sS'sent'
p1514
S'06-02-2012 19:41'
p1515
sa(dp1516
S'name'
p1517
S'Dietmar Dr. Eisenhammer '
p1518
sS'checkin'
p1519
I00
sS'payment'
p1520
S'Paypal'
p1521
sS'date'
p1522
S'05/02/2012'
p1523
sS'email'
p1524
S'ferrowi@web.de'
p1525
sS'pdfcode'
p1526
S'TayYt'
p1527
sS'download'
p1528
S'24-02-2012 09:37'
p1529
sS'trans'
p1530
S''
sS'id'
p1531
I83
sS'sent'
p1532
S'06-02-2012 19:41'
p1533
sa(dp1534
S'name'
p1535
S'Gianfranco Caccamo '
p1536
sS'checkin'
p1537
I00
sS'payment'
p1538
S'Paypal'
p1539
sS'download'
p1540
S'22-02-2012 09:20'
p1541
sS'id'
p1542
I84
sS'pdfcode'
p1543
S'2TQKN'
p1544
sS'date'
p1545
S'06/02/2012'
p1546
sS'trans'
p1547
S''
sS'email'
p1548
S'gcaccamo@gmail.com'
p1549
sS'sent'
p1550
S'06-02-2012 19:42'
p1551
sa(dp1552
S'name'
p1553
S'Gianfranco Caccamo '
p1554
sS'checkin'
p1555
I00
sS'payment'
p1556
S'Paypal'
p1557
sS'date'
p1558
S'06/02/2012'
p1559
sS'email'
p1560
S'gcaccamo@gmail.com'
p1561
sS'pdfcode'
p1562
S'KKnRk'
p1563
sS'download'
p1564
S'22-02-2012 09:20'
p1565
sS'trans'
p1566
S''
sS'id'
p1567
I85
sS'sent'
p1568
S'06-02-2012 19:42'
p1569
sa(dp1570
S'name'
p1571
S'Alberto Vergani '
p1572
sS'checkin'
p1573
I00
sS'payment'
p1574
S'Paypal'
p1575
sS'download'
p1576
S'07-02-2012 12:24'
p1577
sS'id'
p1578
I86
sS'pdfcode'
p1579
S'eaZd9'
p1580
sS'date'
p1581
S'06/02/2012'
p1582
sS'trans'
p1583
S''
sS'email'
p1584
S'a.vergani@fastwebnet.it'
p1585
sS'sent'
p1586
S'06-02-2012 19:42'
p1587
sa(dp1588
S'name'
p1589
S'silvia serina '
p1590
sS'checkin'
p1591
I00
sS'payment'
p1592
S'Paypal'
p1593
sS'date'
p1594
S'06/02/2012'
p1595
sS'email'
p1596
S'seriglam@libero.it'
p1597
sS'pdfcode'
p1598
S'Fo1sO'
p1599
sS'download'
p1600
S'07-02-2012 08:57'
p1601
sS'trans'
p1602
S''
sS'id'
p1603
I87
sS'sent'
p1604
S'07-02-2012 00:33'
p1605
sa(dp1606
S'name'
p1607
S'silvia serina '
p1608
sS'checkin'
p1609
I00
sS'payment'
p1610
S'Paypal'
p1611
sS'download'
p1612
S'07-02-2012 08:57'
p1613
sS'id'
p1614
I88
sS'pdfcode'
p1615
S'tirU2'
p1616
sS'date'
p1617
S'06/02/2012'
p1618
sS'trans'
p1619
S''
sS'email'
p1620
S'seriglam@libero.it'
p1621
sS'sent'
p1622
S'07-02-2012 00:33'
p1623
sa(dp1624
S'name'
p1625
S'Vincenzo Liguori '
p1626
sS'checkin'
p1627
I00
sS'payment'
p1628
S'Paypal'
p1629
sS'date'
p1630
S'06/02/2012'
p1631
sS'email'
p1632
S'nihil_nomen@yahoo.it'
p1633
sS'pdfcode'
p1634
S'BPJuj'
p1635
sS'download'
p1636
S'24-02-2012 09:29'
p1637
sS'trans'
p1638
S''
sS'id'
p1639
I89
sS'sent'
p1640
S'07-02-2012 00:33'
p1641
sa(dp1642
S'name'
p1643
S'NELLO GARCIA GRIMALDI'
p1644
sS'checkin'
p1645
I00
sS'payment'
p1646
S'Bank transfer'
p1647
sS'download'
p1648
S'22-02-2012 14:07'
p1649
sS'id'
p1650
I90
sS'pdfcode'
p1651
S'6K8xF'
p1652
sS'date'
p1653
S'07/02'
p1654
sS'trans'
p1655
S'000000000688143 '
p1656
sS'email'
p1657
S'ANIELLOGRIMALDI@GMAIL.COM'
p1658
sS'sent'
p1659
S'07-02-2012 17:42'
p1660
sa(dp1661
S'name'
p1662
S'Petra Balvinova '
p1663
sS'checkin'
p1664
I00
sS'payment'
p1665
S'Paypal'
p1666
sS'date'
p1667
S'07/02/2012'
p1668
sS'email'
p1669
S'petball@post.cz'
p1670
sS'pdfcode'
p1671
S'sKlAz'
p1672
sS'download'
p1673
S'20-02-2012 14:19'
p1674
sS'trans'
p1675
S''
sS'id'
p1676
I91
sS'sent'
p1677
S'08-02-2012 02:18'
p1678
sa(dp1679
S'name'
p1680
S'Petra Balvinova '
p1681
sS'checkin'
p1682
I00
sS'payment'
p1683
S'Paypal'
p1684
sS'download'
p1685
S'20-02-2012 14:20'
p1686
sS'id'
p1687
I92
sS'pdfcode'
p1688
S'nitcn'
p1689
sS'date'
p1690
S'07/02/2012'
p1691
sS'trans'
p1692
S''
sS'email'
p1693
S'petball@post.cz'
p1694
sS'sent'
p1695
S'08-02-2012 02:18'
p1696
sa(dp1697
S'name'
p1698
S'Petra Balvinova '
p1699
sS'checkin'
p1700
I00
sS'payment'
p1701
S'Paypal'
p1702
sS'date'
p1703
S'07/02/2012'
p1704
sS'email'
p1705
S'petball@post.cz'
p1706
sS'pdfcode'
p1707
S'UDRa1'
p1708
sS'download'
p1709
S'25-02-2012 13:52'
p1710
sS'trans'
p1711
S''
sS'id'
p1712
I93
sS'sent'
p1713
S'08-02-2012 02:19'
p1714
sa(dp1715
S'name'
p1716
S'Petra Balvinova '
p1717
sS'checkin'
p1718
I00
sS'payment'
p1719
S'Paypal'
p1720
sS'download'
p1721
S'25-02-2012 13:05'
p1722
sS'id'
p1723
I94
sS'pdfcode'
p1724
S'VFSEL'
p1725
sS'date'
p1726
S'07/02/2012'
p1727
sS'trans'
p1728
S''
sS'email'
p1729
S'petball@post.cz'
p1730
sS'sent'
p1731
S'08-02-2012 02:19'
p1732
sa(dp1733
S'name'
p1734
S'EMANUEL GOLLOB '
p1735
sS'checkin'
p1736
I00
sS'payment'
p1737
S'Paypal'
p1738
sS'date'
p1739
S'07/02/2012'
p1740
sS'email'
p1741
S'emanuel.gollob@gmail.com'
p1742
sS'pdfcode'
p1743
S'bMrnu'
p1744
sS'download'
p1745
S'25-02-2012 09:55'
p1746
sS'trans'
p1747
S''
sS'id'
p1748
I95
sS'sent'
p1749
S'08-02-2012 02:19'
p1750
sa(dp1751
S'name'
p1752
S'EMANUEL GOLLOB '
p1753
sS'checkin'
p1754
I00
sS'payment'
p1755
S'Paypal'
p1756
sS'download'
p1757
S'25-02-2012 09:52'
p1758
sS'id'
p1759
I96
sS'pdfcode'
p1760
S'5FzXO'
p1761
sS'date'
p1762
S'07/02/2012'
p1763
sS'trans'
p1764
S''
sS'email'
p1765
S'emanuel.gollob@gmail.com'
p1766
sS'sent'
p1767
S'08-02-2012 02:19'
p1768
sa(dp1769
S'name'
p1770
S'silvia conlan '
p1771
sS'checkin'
p1772
I00
sS'payment'
p1773
S'Paypal'
p1774
sS'date'
p1775
S'07/02/2012'
p1776
sS'email'
p1777
S'conlan@hotmail.com'
p1778
sS'pdfcode'
p1779
S'ApVJR'
p1780
sS'download'
p1781
I00
sS'trans'
p1782
S''
sS'id'
p1783
I97
sS'sent'
p1784
S'08-02-2012 02:20'
p1785
sa(dp1786
S'name'
p1787
S'silvia conlan '
p1788
sS'checkin'
p1789
I00
sS'payment'
p1790
S'Paypal'
p1791
sS'download'
p1792
I00
sS'id'
p1793
I98
sS'pdfcode'
p1794
S'2Jni2'
p1795
sS'date'
p1796
S'07/02/2012'
p1797
sS'trans'
p1798
S''
sS'email'
p1799
S'conlan@hotmail.com'
p1800
sS'sent'
p1801
S'08-02-2012 02:20'
p1802
sa(dp1803
S'name'
p1804
S'silvia conlan '
p1805
sS'checkin'
p1806
I00
sS'payment'
p1807
S'Paypal'
p1808
sS'date'
p1809
S'07/02/2012'
p1810
sS'email'
p1811
S'conlan@hotmail.com'
p1812
sS'pdfcode'
p1813
S'r3UP5'
p1814
sS'download'
p1815
I00
sS'trans'
p1816
S''
sS'id'
p1817
I99
sS'sent'
p1818
S'08-02-2012 02:19'
p1819
sa(dp1820
S'name'
p1821
S'Valerio Maggipinto '
p1822
sS'checkin'
p1823
I00
sS'payment'
p1824
S'Paypal'
p1825
sS'download'
p1826
S'08-02-2012 19:14'
p1827
sS'id'
p1828
I100
sS'pdfcode'
p1829
S'DwBJ4'
p1830
sS'date'
p1831
S'07/02/2012'
p1832
sS'trans'
p1833
S''
sS'email'
p1834
S'valeriomaggipinto@libero.it'
p1835
sS'sent'
p1836
S'08-02-2012 02:20'
p1837
sa(dp1838
S'name'
p1839
S'stefania angrisani '
p1840
sS'checkin'
p1841
I00
sS'payment'
p1842
S'Paypal'
p1843
sS'date'
p1844
S'07/02/2012'
p1845
sS'email'
p1846
S's8_tekna7@live.it'
p1847
sS'pdfcode'
p1848
S'lRLu7'
p1849
sS'download'
p1850
S'29-02-2012 21:56'
p1851
sS'trans'
p1852
S''
sS'id'
p1853
I101
sS'sent'
p1854
S'08-02-2012 02:19'
p1855
sa(dp1856
S'name'
p1857
S'Gianandrea Uggetti '
p1858
sS'checkin'
p1859
I00
sS'payment'
p1860
S'Paypal'
p1861
sS'download'
p1862
I00
sS'id'
p1863
I102
sS'pdfcode'
p1864
S'nzQH9'
p1865
sS'date'
p1866
S'07/02/2012'
p1867
sS'trans'
p1868
S''
sS'email'
p1869
S'guggetti@gmail.com'
p1870
sS'sent'
p1871
S'08-02-2012 02:20'
p1872
sa(dp1873
S'name'
p1874
S'Gianandrea Uggetti '
p1875
sS'checkin'
p1876
I00
sS'payment'
p1877
S'Paypal'
p1878
sS'date'
p1879
S'07/02/2012'
p1880
sS'email'
p1881
S'guggetti@gmail.com'
p1882
sS'pdfcode'
p1883
S'yRGJD'
p1884
sS'download'
p1885
S'08-02-2012 10:30'
p1886
sS'trans'
p1887
S''
sS'id'
p1888
I103
sS'sent'
p1889
S'08-02-2012 02:21'
p1890
sa(dp1891
S'name'
p1892
S'Barbara Pozzi '
p1893
sS'checkin'
p1894
I00
sS'payment'
p1895
S'Paypal'
p1896
sS'download'
p1897
I00
sS'id'
p1898
I104
sS'pdfcode'
p1899
S'VcHwk'
p1900
sS'date'
p1901
S'07/02/2012'
p1902
sS'trans'
p1903
S''
sS'email'
p1904
S'barbara8410@hotmail.it'
p1905
sS'sent'
p1906
S'08-02-2012 02:21'
p1907
sa(dp1908
S'name'
p1909
S'Barbara Pozzi '
p1910
sS'checkin'
p1911
I00
sS'payment'
p1912
S'Paypal'
p1913
sS'date'
p1914
S'07/02/2012'
p1915
sS'email'
p1916
S'barbara8410@hotmail.it'
p1917
sS'pdfcode'
p1918
S'J1z7q'
p1919
sS'download'
p1920
I00
sS'trans'
p1921
S''
sS'id'
p1922
I105
sS'sent'
p1923
S'08-02-2012 02:21'
p1924
sa(dp1925
S'name'
p1926
S'Barbara Pozzi '
p1927
sS'checkin'
p1928
I00
sS'payment'
p1929
S'Paypal'
p1930
sS'download'
p1931
I00
sS'id'
p1932
I106
sS'pdfcode'
p1933
S'GrTCt'
p1934
sS'date'
p1935
S'07/02/2012'
p1936
sS'trans'
p1937
S''
sS'email'
p1938
S'barbara8410@hotmail.it'
p1939
sS'sent'
p1940
S'08-02-2012 02:22'
p1941
sa(dp1942
S'name'
p1943
S'Jan Kosina '
p1944
sS'checkin'
p1945
I00
sS'payment'
p1946
S'Paypal'
p1947
sS'date'
p1948
S'07/02/2012'
p1949
sS'email'
p1950
S'kosinaj@gmail.com'
p1951
sS'pdfcode'
p1952
S'EbXzz'
p1953
sS'download'
p1954
S'25-02-2012 11:29'
p1955
sS'trans'
p1956
S''
sS'id'
p1957
I107
sS'sent'
p1958
S'08-02-2012 02:18'
p1959
sa(dp1960
S'name'
p1961
S'Gloria Scarano '
p1962
sS'checkin'
p1963
I00
sS'payment'
p1964
S'Paypal'
p1965
sS'download'
p1966
S'08-02-2012 17:32'
p1967
sS'id'
p1968
I108
sS'pdfcode'
p1969
S'ed9mH'
p1970
sS'date'
p1971
S'07/02/2012'
p1972
sS'trans'
p1973
S''
sS'email'
p1974
S'gloria.scarano@gmail.com'
p1975
sS'sent'
p1976
S'08-02-2012 02:21'
p1977
sa(dp1978
S'name'
p1979
S'Gloria Scarano '
p1980
sS'checkin'
p1981
I00
sS'payment'
p1982
S'Paypal'
p1983
sS'date'
p1984
S'07/02/2012'
p1985
sS'email'
p1986
S'gloria.scarano@gmail.com'
p1987
sS'pdfcode'
p1988
S'f7s86'
p1989
sS'download'
p1990
S'24-02-2012 19:23'
p1991
sS'trans'
p1992
S''
sS'id'
p1993
I109
sS'sent'
p1994
S'08-02-2012 02:22'
p1995
sa(dp1996
S'name'
p1997
S'Gloria Scarano '
p1998
sS'checkin'
p1999
I00
sS'payment'
p2000
S'Paypal'
p2001
sS'download'
p2002
S'24-02-2012 19:19'
p2003
sS'id'
p2004
I110
sS'pdfcode'
p2005
S'U9zYw'
p2006
sS'date'
p2007
S'07/02/2012'
p2008
sS'trans'
p2009
S''
sS'email'
p2010
S'gloria.scarano@gmail.com'
p2011
sS'sent'
p2012
S'08-02-2012 02:22'
p2013
sa(dp2014
S'name'
p2015
S'Gloria Scarano '
p2016
sS'checkin'
p2017
I00
sS'payment'
p2018
S'Paypal'
p2019
sS'date'
p2020
S'07/02/2012'
p2021
sS'email'
p2022
S'gloria.scarano@gmail.com'
p2023
sS'pdfcode'
p2024
S'roa2J'
p2025
sS'download'
p2026
S'08-02-2012 12:58'
p2027
sS'trans'
p2028
S''
sS'id'
p2029
I111
sS'sent'
p2030
S'08-02-2012 02:23'
p2031
sa(dp2032
S'name'
p2033
S'C I ALEXANDER-MARSH '
p2034
sS'checkin'
p2035
I00
sS'payment'
p2036
S'Paypal'
p2037
sS'download'
p2038
I00
sS'id'
p2039
I112
sS'pdfcode'
p2040
S'tFDQj'
p2041
sS'date'
p2042
S'07/02/2012'
p2043
sS'trans'
p2044
S''
sS'email'
p2045
S'oui_le_pantalon@hotmail.com'
p2046
sS'sent'
p2047
S'08-02-2012 02:23'
p2048
sa(dp2049
S'name'
p2050
S'FURBETTA1979 /BENEF/YAHOO.IT'
p2051
sS'checkin'
p2052
I00
sS'payment'
p2053
S'Bank transfer'
p2054
sS'download'
p2055
S'08-02-2012 15:52'
p2056
sS'id'
p2057
I113
sS'pdfcode'
p2058
S'e2JNV'
p2059
sS'date'
p2060
S'08/02/2012'
p2061
sS'trans'
p2062
S'63813520001'
p2063
sS'email'
p2064
S'FURBETTA1979@YAHOO.IT'
p2065
sS'sent'
p2066
S'08-02-2012 11:07'
p2067
sa(dp2068
S'name'
p2069
S'FURBETTA1979 /BENEF/YAHOO.IT'
p2070
sS'checkin'
p2071
I00
sS'payment'
p2072
S'Bank transfer'
p2073
sS'date'
p2074
S'08/02/2012'
p2075
sS'email'
p2076
S'FURBETTA1979@YAHOO.IT'
p2077
sS'pdfcode'
p2078
S'2LEyN'
p2079
sS'download'
p2080
S'08-02-2012 15:52'
p2081
sS'trans'
p2082
S'63813520001'
p2083
sS'id'
p2084
I114
sS'sent'
p2085
S'08-02-2012 11:07'
p2086
sa(dp2087
S'name'
p2088
S'FURBETTA1979 /BENEF/YAHOO.IT'
p2089
sS'checkin'
p2090
I00
sS'payment'
p2091
S'Bank transfer'
p2092
sS'download'
p2093
S'08-02-2012 15:52'
p2094
sS'id'
p2095
I115
sS'pdfcode'
p2096
S'Zy7JF'
p2097
sS'date'
p2098
S'08/02/2012'
p2099
sS'trans'
p2100
S'63813520001'
p2101
sS'email'
p2102
S'FURBETTA1979@YAHOO.IT'
p2103
sS'sent'
p2104
S'08-02-2012 11:08'
p2105
sa(dp2106
S'name'
p2107
S'FURBETTA1979 /BENEF/YAHOO.IT'
p2108
sS'checkin'
p2109
I00
sS'payment'
p2110
S'Bank transfer'
p2111
sS'date'
p2112
S'08/02/2012'
p2113
sS'email'
p2114
S'FURBETTA1979@YAHOO.IT'
p2115
sS'pdfcode'
p2116
S'urhft'
p2117
sS'download'
p2118
S'08-02-2012 15:51'
p2119
sS'trans'
p2120
S'63813520001'
p2121
sS'id'
p2122
I116
sS'sent'
p2123
S'08-02-2012 11:08'
p2124
sa(dp2125
S'name'
p2126
S'FURBETTA1979 /BENEF/YAHOO.IT'
p2127
sS'checkin'
p2128
I00
sS'payment'
p2129
S'Bank transfer'
p2130
sS'download'
p2131
S'08-02-2012 15:51'
p2132
sS'id'
p2133
I117
sS'pdfcode'
p2134
S'sB9zq'
p2135
sS'date'
p2136
S'08/02/2012'
p2137
sS'trans'
p2138
S'63813520001'
p2139
sS'email'
p2140
S'FURBETTA1979@YAHOO.IT'
p2141
sS'sent'
p2142
S'08-02-2012 11:08'
p2143
sa(dp2144
S'name'
p2145
S'Aman Khan [aman_milano@hotmail.com]'
p2146
sS'checkin'
p2147
I00
sS'payment'
p2148
S'Bank transfer'
p2149
sS'download'
p2150
S'08-02-2012 12:00'
p2151
sS'id'
p2152
I118
sS'pdfcode'
p2153
S'CyqPr'
p2154
sS'date'
p2155
S''
sS'trans'
p2156
S''
sS'email'
p2157
S'aman_milano@hotmail.com'
p2158
sS'sent'
p2159
S'08-02-2012 11:12'
p2160
sa(dp2161
S'name'
p2162
S'Aman Khan [aman_milano@hotmail.com]'
p2163
sS'checkin'
p2164
I00
sS'payment'
p2165
S'Bank transfer'
p2166
sS'date'
p2167
S''
sS'email'
p2168
S'aman_milano@hotmail.com'
p2169
sS'pdfcode'
p2170
S'XHs9b'
p2171
sS'download'
p2172
S'08-02-2012 12:00'
p2173
sS'trans'
p2174
S''
sS'id'
p2175
I119
sS'sent'
p2176
S'08-02-2012 11:12'
p2177
sa(dp2178
S'name'
p2179
S'Aman Khan [aman_milano@hotmail.com]'
p2180
sS'checkin'
p2181
I00
sS'payment'
p2182
S'Bank transfer'
p2183
sS'download'
p2184
S'08-02-2012 11:58'
p2185
sS'id'
p2186
I120
sS'pdfcode'
p2187
S'01IPZ'
p2188
sS'date'
p2189
S''
sS'trans'
p2190
S''
sS'email'
p2191
S'aman_milano@hotmail.com'
p2192
sS'sent'
p2193
S'08-02-2012 11:12'
p2194
sa(dp2195
S'name'
p2196
S'IVAN CASTAGNA'
p2197
sS'checkin'
p2198
I00
sS'payment'
p2199
S'Bank transfer'
p2200
sS'date'
p2201
S'09/02/2012'
p2202
sS'email'
p2203
S'IVANCASTAGNA@GMAIL.COM'
p2204
sS'pdfcode'
p2205
S'BnDi3'
p2206
sS'download'
p2207
S'09-02-2012 09:27'
p2208
sS'trans'
p2209
S'13917013109 '
p2210
sS'id'
p2211
I121
sS'sent'
p2212
S'09-02-2012 09:25'
p2213
sa(dp2214
S'name'
p2215
S'IVAN CASTAGNA'
p2216
sS'checkin'
p2217
I00
sS'payment'
p2218
S'Bank transfer'
p2219
sS'download'
p2220
S'09-02-2012 09:28'
p2221
sS'id'
p2222
I122
sS'pdfcode'
p2223
S'P32CY'
p2224
sS'date'
p2225
S'09/02/2012'
p2226
sS'trans'
p2227
S'13917013109 '
p2228
sS'email'
p2229
S'IVANCASTAGNA@GMAIL.COM'
p2230
sS'sent'
p2231
S'09-02-2012 09:25'
p2232
sa(dp2233
S'name'
p2234
S'IVAN CASTAGNA'
p2235
sS'checkin'
p2236
I00
sS'payment'
p2237
S'Bank transfer'
p2238
sS'date'
p2239
S'09/02/2012'
p2240
sS'email'
p2241
S'IVANCASTAGNA@GMAIL.COM'
p2242
sS'pdfcode'
p2243
S'FbENr'
p2244
sS'download'
p2245
S'09-02-2012 09:28'
p2246
sS'trans'
p2247
S'13917013109 '
p2248
sS'id'
p2249
I123
sS'sent'
p2250
S'09-02-2012 09:26'
p2251
sa(dp2252
S'name'
p2253
S'Andrea Cassiani'
p2254
sS'checkin'
p2255
I00
sS'payment'
p2256
S'Paypal'
p2257
sS'download'
p2258
I00
sS'id'
p2259
I124
sS'pdfcode'
p2260
S'UJLSf'
p2261
sS'date'
p2262
S'08/02/2012'
p2263
sS'trans'
p2264
S''
sS'email'
p2265
S'andrea_cc75@hotmail.com'
p2266
sS'sent'
p2267
S'25-02-2012 00:13'
p2268
sa(dp2269
S'name'
p2270
S'Marketa Zelena '
p2271
sS'checkin'
p2272
I00
sS'payment'
p2273
S'Paypal'
p2274
sS'date'
p2275
S'08/02/2012'
p2276
sS'email'
p2277
S'marketa_zelena@centrum.cz'
p2278
sS'pdfcode'
p2279
S'LhEfe'
p2280
sS'download'
p2281
S'13-02-2012 18:31'
p2282
sS'trans'
p2283
S''
sS'id'
p2284
I125
sS'sent'
p2285
S'09-02-2012 14:35'
p2286
sa(dp2287
S'name'
p2288
S'Marketa Zelena '
p2289
sS'checkin'
p2290
I00
sS'payment'
p2291
S'Paypal'
p2292
sS'download'
p2293
S'13-02-2012 18:30'
p2294
sS'id'
p2295
I126
sS'pdfcode'
p2296
S'r6b9A'
p2297
sS'date'
p2298
S'08/02/2012'
p2299
sS'trans'
p2300
S''
sS'email'
p2301
S'marketa_zelena@centrum.cz'
p2302
sS'sent'
p2303
S'09-02-2012 14:35'
p2304
sa(dp2305
S'name'
p2306
S'Neri Luca '
p2307
sS'checkin'
p2308
I00
sS'payment'
p2309
S'Paypal'
p2310
sS'date'
p2311
S'08/02/2012'
p2312
sS'email'
p2313
S'nero74@yahoo.com'
p2314
sS'pdfcode'
p2315
S'n81TH'
p2316
sS'download'
p2317
S'25-02-2012 21:18'
p2318
sS'trans'
p2319
S''
sS'id'
p2320
I127
sS'sent'
p2321
S'09-02-2012 14:35'
p2322
sa(dp2323
S'name'
p2324
S'Antonio Suevo '
p2325
sS'checkin'
p2326
I00
sS'payment'
p2327
S'Paypal'
p2328
sS'download'
p2329
S'09-02-2012 16:09'
p2330
sS'id'
p2331
I128
sS'pdfcode'
p2332
S'5h1Jb'
p2333
sS'date'
p2334
S'08/02/2012'
p2335
sS'trans'
p2336
S''
sS'email'
p2337
S'suevo.antonio@gmail.com'
p2338
sS'sent'
p2339
S'09-02-2012 14:35'
p2340
sa(dp2341
S'name'
p2342
S'Antonio Suevo '
p2343
sS'checkin'
p2344
I00
sS'payment'
p2345
S'Paypal'
p2346
sS'date'
p2347
S'08/02/2012'
p2348
sS'email'
p2349
S'suevo.antonio@gmail.com'
p2350
sS'pdfcode'
p2351
S'OuuCg'
p2352
sS'download'
p2353
S'09-02-2012 16:08'
p2354
sS'trans'
p2355
S''
sS'id'
p2356
I129
sS'sent'
p2357
S'09-02-2012 14:35'
p2358
sa(dp2359
S'name'
p2360
S"FRANCESCO D'AGOSTINO "
p2361
sS'checkin'
p2362
I00
sS'payment'
p2363
S'Paypal'
p2364
sS'download'
p2365
S'26-02-2012 03:50'
p2366
sS'id'
p2367
I130
sS'pdfcode'
p2368
S'30maA'
p2369
sS'date'
p2370
S'08/02/2012'
p2371
sS'trans'
p2372
S''
sS'email'
p2373
S'mhluca@libero.it'
p2374
sS'sent'
p2375
S'09-02-2012 14:36'
p2376
sa(dp2377
S'name'
p2378
S'Adelio Valeriano Vanosi '
p2379
sS'checkin'
p2380
I00
sS'payment'
p2381
S'Paypal'
p2382
sS'date'
p2383
S'08/02/2012'
p2384
sS'email'
p2385
S'van.ade@gmail.com'
p2386
sS'pdfcode'
p2387
S'2mhVZ'
p2388
sS'download'
p2389
S'25-02-2012 15:58'
p2390
sS'trans'
p2391
S''
sS'id'
p2392
I131
sS'sent'
p2393
S'09-02-2012 14:36'
p2394
sa(dp2395
S'name'
p2396
S'Adelio Valeriano Vanosi '
p2397
sS'checkin'
p2398
I00
sS'payment'
p2399
S'Paypal'
p2400
sS'download'
p2401
S'25-02-2012 15:59'
p2402
sS'id'
p2403
I132
sS'pdfcode'
p2404
S'5Wvwu'
p2405
sS'date'
p2406
S'08/02/2012'
p2407
sS'trans'
p2408
S''
sS'email'
p2409
S'van.ade@gmail.com'
p2410
sS'sent'
p2411
S'09-02-2012 14:36'
p2412
sa(dp2413
S'name'
p2414
S'laurent tollet '
p2415
sS'checkin'
p2416
I00
sS'payment'
p2417
S'Paypal'
p2418
sS'date'
p2419
S'08/02/2012'
p2420
sS'email'
p2421
S'laurenttollet@sfr.fr'
p2422
sS'pdfcode'
p2423
S'AgUGS'
p2424
sS'download'
p2425
S'09-02-2012 22:36'
p2426
sS'trans'
p2427
S''
sS'id'
p2428
I133
sS'sent'
p2429
S'09-02-2012 14:36'
p2430
sa(dp2431
S'name'
p2432
S'DANIELA GALLO INGRAO'
p2433
sS'checkin'
p2434
I00
sS'payment'
p2435
S'Paypal'
p2436
sS'download'
p2437
S'25-02-2012 17:55'
p2438
sS'id'
p2439
I134
sS'pdfcode'
p2440
S'kgg9a'
p2441
sS'date'
p2442
S'08/02/2012'
p2443
sS'trans'
p2444
S''
sS'email'
p2445
S'massimiliano.vezzoli@yahoo.it'
p2446
sS'sent'
p2447
S'09-02-2012 14:36'
p2448
sa(dp2449
S'name'
p2450
S'Stefano Cuch '
p2451
sS'checkin'
p2452
I00
sS'payment'
p2453
S'Paypal'
p2454
sS'date'
p2455
S'08/02/2012'
p2456
sS'email'
p2457
S'capitancuch@libero.it'
p2458
sS'pdfcode'
p2459
S'qQgXl'
p2460
sS'download'
p2461
S'25-02-2012 13:45'
p2462
sS'trans'
p2463
S''
sS'id'
p2464
I135
sS'sent'
p2465
S'09-02-2012 14:36'
p2466
sa(dp2467
S'name'
p2468
S'Stefano Cuch '
p2469
sS'checkin'
p2470
I00
sS'payment'
p2471
S'Paypal'
p2472
sS'download'
p2473
S'25-02-2012 13:49'
p2474
sS'id'
p2475
I136
sS'pdfcode'
p2476
S'iXSuq'
p2477
sS'date'
p2478
S'08/02/2012'
p2479
sS'trans'
p2480
S''
sS'email'
p2481
S'capitancuch@libero.it'
p2482
sS'sent'
p2483
S'09-02-2012 14:37'
p2484
sa(dp2485
S'name'
p2486
S'Stefano Cuch '
p2487
sS'checkin'
p2488
I00
sS'payment'
p2489
S'Paypal'
p2490
sS'date'
p2491
S'08/02/2012'
p2492
sS'email'
p2493
S'capitancuch@libero.it'
p2494
sS'pdfcode'
p2495
S'2smKI'
p2496
sS'download'
p2497
S'25-02-2012 13:50'
p2498
sS'trans'
p2499
S''
sS'id'
p2500
I137
sS'sent'
p2501
S'09-02-2012 14:37'
p2502
sa(dp2503
S'name'
p2504
S'Stefano Cuch '
p2505
sS'checkin'
p2506
I00
sS'payment'
p2507
S'Paypal'
p2508
sS'download'
p2509
S'25-02-2012 13:51'
p2510
sS'id'
p2511
I138
sS'pdfcode'
p2512
S'yU5gN'
p2513
sS'date'
p2514
S'08/02/2012'
p2515
sS'trans'
p2516
S''
sS'email'
p2517
S'capitancuch@libero.it'
p2518
sS'sent'
p2519
S'09-02-2012 14:37'
p2520
sa(dp2521
S'name'
p2522
S'Stefano Cuch '
p2523
sS'checkin'
p2524
I00
sS'payment'
p2525
S'Paypal'
p2526
sS'date'
p2527
S'08/02/2012'
p2528
sS'email'
p2529
S'capitancuch@libero.it'
p2530
sS'pdfcode'
p2531
S'IqC9n'
p2532
sS'download'
p2533
S'25-02-2012 13:47'
p2534
sS'trans'
p2535
S''
sS'id'
p2536
I139
sS'sent'
p2537
S'09-02-2012 14:36'
p2538
sa(dp2539
S'name'
p2540
S'Filena Fortinguerra'
p2541
sS'checkin'
p2542
I00
sS'payment'
p2543
S'Paypal'
p2544
sS'date'
p2545
S'09/02/2012'
p2546
sS'email'
p2547
S'filenaforti@gmail.com'
p2548
sS'pdfcode'
p2549
S'E8tpZ'
p2550
sS'download'
p2551
S'24-02-2012 18:35'
p2552
sS'trans'
p2553
S''
sS'id'
p2554
I140
sS'sent'
p2555
S'09-02-2012 14:36'
p2556
sa(dp2557
S'name'
p2558
S'Daniela Freddi '
p2559
sS'checkin'
p2560
I00
sS'payment'
p2561
S'Paypal'
p2562
sS'download'
p2563
S'25-02-2012 19:38'
p2564
sS'id'
p2565
I141
sS'pdfcode'
p2566
S'zvcNG'
p2567
sS'date'
p2568
S'09/02/2012'
p2569
sS'trans'
p2570
S''
sS'email'
p2571
S'lidia.garavaglia@gmail.com'
p2572
sS'sent'
p2573
S'09-02-2012 14:36'
p2574
sa(dp2575
S'name'
p2576
S'Robert Elwischger'
p2577
sS'checkin'
p2578
I00
sS'payment'
p2579
S'Paypal'
p2580
sS'download'
p2581
S'11-02-2012 17:48'
p2582
sS'id'
p2583
I143
sS'pdfcode'
p2584
S'wCi5k'
p2585
sS'date'
p2586
S'29/01/2012'
p2587
sS'trans'
p2588
S''
sS'email'
p2589
S'salzburg09@gmail.com'
p2590
sS'sent'
p2591
S'11-02-2012 17:43'
p2592
sa(dp2593
S'name'
p2594
S'Filena Fortinguerra'
p2595
sS'checkin'
p2596
I00
sS'payment'
p2597
S'Paypal'
p2598
sS'date'
p2599
S'09/02/2012'
p2600
sS'email'
p2601
S'filenaforti@gmail.com'
p2602
sS'pdfcode'
p2603
S'tNXZh'
p2604
sS'download'
p2605
S'24-02-2012 18:36'
p2606
sS'trans'
p2607
S''
sS'id'
p2608
I144
sS'sent'
p2609
S'11-02-2012 17:43'
p2610
sa(dp2611
S'name'
p2612
S'Filena Fortinguerra'
p2613
sS'checkin'
p2614
I00
sS'payment'
p2615
S'Paypal'
p2616
sS'download'
p2617
S'25-02-2012 23:11'
p2618
sS'id'
p2619
I145
sS'pdfcode'
p2620
S'BBL8S'
p2621
sS'date'
p2622
S'09/02/2012'
p2623
sS'trans'
p2624
S''
sS'email'
p2625
S'filenaforti@gmail.com'
p2626
sS'sent'
p2627
S'11-02-2012 17:44'
p2628
sa(dp2629
S'name'
p2630
S'Alessio Re'
p2631
sS'checkin'
p2632
I00
sS'payment'
p2633
S'Paypal'
p2634
sS'date'
p2635
S'09/02/2012'
p2636
sS'email'
p2637
S'alessio.re@gmail.com'
p2638
sS'pdfcode'
p2639
S'bZniE'
p2640
sS'download'
p2641
S'22-02-2012 11:44'
p2642
sS'trans'
p2643
S''
sS'id'
p2644
I146
sS'sent'
p2645
S'11-02-2012 17:45'
p2646
sa(dp2647
S'name'
p2648
S'Eszter Badics '
p2649
sS'checkin'
p2650
I00
sS'payment'
p2651
S'Paypal'
p2652
sS'download'
p2653
S'23-02-2012 14:28'
p2654
sS'id'
p2655
I147
sS'pdfcode'
p2656
S'UbEiE'
p2657
sS'date'
p2658
S'09/02/2012'
p2659
sS'trans'
p2660
S''
sS'email'
p2661
S'eszter.badics@gmail.com'
p2662
sS'sent'
p2663
S'11-02-2012 17:44'
p2664
sa(dp2665
S'name'
p2666
S'Eszter Badics '
p2667
sS'checkin'
p2668
I00
sS'payment'
p2669
S'Paypal'
p2670
sS'date'
p2671
S'09/02/2012'
p2672
sS'email'
p2673
S'eszter.badics@gmail.com'
p2674
sS'pdfcode'
p2675
S'E1ce0'
p2676
sS'download'
p2677
S'23-02-2012 14:29'
p2678
sS'trans'
p2679
S''
sS'id'
p2680
I148
sS'sent'
p2681
S'11-02-2012 17:46'
p2682
sa(dp2683
S'name'
p2684
S'giovanni conti '
p2685
sS'checkin'
p2686
I00
sS'payment'
p2687
S'Paypal'
p2688
sS'download'
p2689
S'13-02-2012 14:59'
p2690
sS'id'
p2691
I150
sS'pdfcode'
p2692
S'cO79K'
p2693
sS'date'
p2694
S'10/02/2012'
p2695
sS'trans'
p2696
S''
sS'email'
p2697
S'giovannifutre@yahoo.com'
p2698
sS'sent'
p2699
S'11-02-2012 17:46'
p2700
sa(dp2701
S'name'
p2702
S'MICHELA SECHI '
p2703
sS'checkin'
p2704
I00
sS'payment'
p2705
S'Paypal'
p2706
sS'date'
p2707
S'11/02/2012'
p2708
sS'email'
p2709
S'michelasechi@hotmail.com'
p2710
sS'pdfcode'
p2711
S'IA1R5'
p2712
sS'download'
p2713
S'13-02-2012 15:10'
p2714
sS'trans'
p2715
S''
sS'id'
p2716
I151
sS'sent'
p2717
S'11-02-2012 17:45'
p2718
sa(dp2719
S'name'
p2720
S'MARIA CRISTINA ROMANO'
p2721
sS'checkin'
p2722
I00
sS'payment'
p2723
S'Bank transfer'
p2724
sS'download'
p2725
S'24-02-2012 13:38'
p2726
sS'id'
p2727
I152
sS'pdfcode'
p2728
S'JP9J0'
p2729
sS'date'
p2730
S'10/02/2012'
p2731
sS'trans'
p2732
S'44845439512 '
p2733
sS'email'
p2734
S'MARIACRISTINA.ROMANO@POSTE.IT '
p2735
sS'sent'
p2736
S'13-02-2012 14:09'
p2737
sa(dp2738
S'name'
p2739
S'JAVIER SILVEIRA ACOSTA '
p2740
sS'checkin'
p2741
I00
sS'payment'
p2742
S'Bank transfer'
p2743
sS'date'
p2744
S'13/02/2012'
p2745
sS'email'
p2746
S'SIAC@GMAIL.COM'
p2747
sS'pdfcode'
p2748
S'TBAeb'
p2749
sS'download'
p2750
S'16-02-2012 11:01'
p2751
sS'trans'
p2752
S'44846900800'
p2753
sS'id'
p2754
I153
sS'sent'
p2755
S'13-02-2012 14:09'
p2756
sa(dp2757
S'name'
p2758
S'JAVIER SILVEIRA ACOSTA '
p2759
sS'checkin'
p2760
I00
sS'payment'
p2761
S'Bank transfer'
p2762
sS'download'
p2763
S'15-02-2012 10:37'
p2764
sS'id'
p2765
I154
sS'pdfcode'
p2766
S'1DDFk'
p2767
sS'date'
p2768
S'13/02/2012'
p2769
sS'trans'
p2770
S'44846900800'
p2771
sS'email'
p2772
S'SIAC@GMAIL.COM'
p2773
sS'sent'
p2774
S'13-02-2012 14:09'
p2775
sa(dp2776
S'name'
p2777
S'van truong'
p2778
sS'checkin'
p2779
I00
sS'payment'
p2780
S'Bank transfer'
p2781
sS'download'
p2782
S'25-02-2012 23:33'
p2783
sS'id'
p2784
I155
sS'pdfcode'
p2785
S'iIP7r'
p2786
sS'date'
p2787
S''
sS'trans'
p2788
S''
sS'email'
p2789
S'roberto.marangoni@gmail.com'
p2790
sS'sent'
p2791
S'13-02-2012 17:25'
p2792
sa(dp2793
S'name'
p2794
S'Betania du Brazil'
p2795
sS'checkin'
p2796
I00
sS'payment'
p2797
S'Bank transfer'
p2798
sS'date'
p2799
S''
sS'email'
p2800
S'roberto.marangoni@gmail.com'
p2801
sS'pdfcode'
p2802
S'Guj2E'
p2803
sS'download'
p2804
S'15-02-2012 19:06'
p2805
sS'trans'
p2806
S''
sS'id'
p2807
I156
sS'sent'
p2808
S'13-02-2012 17:25'
p2809
sa(dp2810
S'name'
p2811
S'Svetlana von Truong'
p2812
sS'checkin'
p2813
I00
sS'payment'
p2814
S'Bank transfer'
p2815
sS'download'
p2816
S'25-02-2012 23:36'
p2817
sS'id'
p2818
I157
sS'pdfcode'
p2819
S'KADFE'
p2820
sS'date'
p2821
S''
sS'trans'
p2822
S''
sS'email'
p2823
S'roberto.marangoni@gmail.com'
p2824
sS'sent'
p2825
S'13-02-2012 17:25'
p2826
sa(dp2827
S'name'
p2828
S'Daniele Faenza'
p2829
sS'checkin'
p2830
I00
sS'payment'
p2831
S'Bank transfer'
p2832
sS'date'
p2833
S''
sS'email'
p2834
S'masterneo@hotmail.it'
p2835
sS'pdfcode'
p2836
S'E6S08'
p2837
sS'download'
p2838
I00
sS'trans'
p2839
S'contanti'
p2840
sS'id'
p2841
I158
sS'sent'
p2842
S'13-02-2012 17:25'
p2843
sa(dp2844
S'name'
p2845
S'Daniele Faenza'
p2846
sS'checkin'
p2847
I00
sS'payment'
p2848
S'Bank transfer'
p2849
sS'download'
p2850
I00
sS'id'
p2851
I159
sS'pdfcode'
p2852
S'2a2I8'
p2853
sS'date'
p2854
S''
sS'trans'
p2855
S'contanti'
p2856
sS'email'
p2857
S'masterneo@hotmail.it'
p2858
sS'sent'
p2859
S'13-02-2012 17:25'
p2860
sa(dp2861
S'name'
p2862
S'Simone Bortolan Gianese'
p2863
sS'checkin'
p2864
I00
sS'payment'
p2865
S'Paypal'
p2866
sS'date'
p2867
S'13/02/2012'
p2868
sS'email'
p2869
S'simone.gianese@gmail.com'
p2870
sS'pdfcode'
p2871
S'NfGEv'
p2872
sS'download'
p2873
S'25-02-2012 18:37'
p2874
sS'trans'
p2875
S''
sS'id'
p2876
I160
sS'sent'
p2877
S'14-02-2012 10:28'
p2878
sa(dp2879
S'name'
p2880
S'Claudio Baroni '
p2881
sS'checkin'
p2882
I00
sS'payment'
p2883
S'Paypal'
p2884
sS'download'
p2885
S'14-02-2012 10:29'
p2886
sS'id'
p2887
I161
sS'pdfcode'
p2888
S'oQzzG'
p2889
sS'date'
p2890
S'13/02/2012'
p2891
sS'trans'
p2892
S''
sS'email'
p2893
S'baronic@gmail.it'
p2894
sS'sent'
p2895
S'14-02-2012 10:28'
p2896
sa(dp2897
S'name'
p2898
S'Claudio Baroni '
p2899
sS'checkin'
p2900
I00
sS'payment'
p2901
S'Paypal'
p2902
sS'date'
p2903
S'13/02/2012'
p2904
sS'email'
p2905
S'baronic@gmail.it'
p2906
sS'pdfcode'
p2907
S'pzE0L'
p2908
sS'download'
p2909
S'23-02-2012 23:30'
p2910
sS'trans'
p2911
S''
sS'id'
p2912
I162
sS'sent'
p2913
S'14-02-2012 10:28'
p2914
sa(dp2915
S'name'
p2916
S'Andrea Capra '
p2917
sS'checkin'
p2918
I00
sS'payment'
p2919
S'Paypal'
p2920
sS'download'
p2921
S'14-02-2012 21:44'
p2922
sS'id'
p2923
I163
sS'pdfcode'
p2924
S'zAXXl'
p2925
sS'date'
p2926
S'13/02/2012'
p2927
sS'trans'
p2928
S''
sS'email'
p2929
S'acapra@alteanet.it'
p2930
sS'sent'
p2931
S'14-02-2012 10:28'
p2932
sa(dp2933
S'name'
p2934
S'Francesca Ronzio '
p2935
sS'checkin'
p2936
I00
sS'payment'
p2937
S'Paypal'
p2938
sS'date'
p2939
S'13/02/2012'
p2940
sS'email'
p2941
S'fra.ronzio@gmail.com'
p2942
sS'pdfcode'
p2943
S'q8K3M'
p2944
sS'download'
p2945
S'14-02-2012 15:28'
p2946
sS'trans'
p2947
S''
sS'id'
p2948
I164
sS'sent'
p2949
S'14-02-2012 10:28'
p2950
sa(dp2951
S'name'
p2952
S'Francesca Ronzio '
p2953
sS'checkin'
p2954
I00
sS'payment'
p2955
S'Paypal'
p2956
sS'download'
p2957
S'14-02-2012 15:28'
p2958
sS'id'
p2959
I165
sS'pdfcode'
p2960
S'IttwF'
p2961
sS'date'
p2962
S'13/02/2012'
p2963
sS'trans'
p2964
S''
sS'email'
p2965
S'fra.ronzio@gmail.com'
p2966
sS'sent'
p2967
S'14-02-2012 10:28'
p2968
sa(dp2969
S'name'
p2970
S'Alessandro Gravinese '
p2971
sS'checkin'
p2972
I00
sS'payment'
p2973
S'Paypal'
p2974
sS'date'
p2975
S'13/02/2012'
p2976
sS'email'
p2977
S'alessandro.gravinese@colliersre.it'
p2978
sS'pdfcode'
p2979
S'x3THZ'
p2980
sS'download'
p2981
I00
sS'trans'
p2982
S''
sS'id'
p2983
I166
sS'sent'
p2984
S'19-02-2012 12:16'
p2985
sa(dp2986
S'name'
p2987
S'Alessandro Gravinese '
p2988
sS'checkin'
p2989
I00
sS'payment'
p2990
S'Paypal'
p2991
sS'download'
p2992
I00
sS'id'
p2993
I167
sS'pdfcode'
p2994
S'wOBiH'
p2995
sS'date'
p2996
S'13/02/2012'
p2997
sS'trans'
p2998
S''
sS'email'
p2999
S'alessandro.gravinese@colliersre.it'
p3000
sS'sent'
p3001
S'19-02-2012 12:16'
p3002
sa(dp3003
S'name'
p3004
S'rafaele bondaz'
p3005
sS'checkin'
p3006
I00
sS'payment'
p3007
S'Bank transfer'
p3008
sS'download'
p3009
S'03-03-2012 01:04'
p3010
sS'id'
p3011
I168
sS'pdfcode'
p3012
S'xqg8Q'
p3013
sS'date'
p3014
S'14/02/2012'
p3015
sS'trans'
p3016
S''
sS'email'
p3017
S'Rafaelelyoncity@yahoo.fr'
p3018
sS'sent'
p3019
S'14-02-2012 11:51'
p3020
sa(dp3021
S'name'
p3022
S'marco gloder'
p3023
sS'checkin'
p3024
I00
sS'payment'
p3025
S'Bank transfer'
p3026
sS'download'
p3027
S'24-02-2012 16:19'
p3028
sS'id'
p3029
I169
sS'pdfcode'
p3030
S'3QvQE'
p3031
sS'date'
p3032
S'14/02/2012'
p3033
sS'trans'
p3034
S''
sS'email'
p3035
S'spiderman7791@hotmail.com'
p3036
sS'sent'
p3037
S'22-02-2012 14:40'
p3038
sa(dp3039
S'name'
p3040
S'marco gloder'
p3041
sS'checkin'
p3042
I00
sS'payment'
p3043
S'Bank transfer'
p3044
sS'date'
p3045
S'14/02/2012'
p3046
sS'email'
p3047
S'spiderman7791@hotmail.com'
p3048
sS'pdfcode'
p3049
S'xjtQJ'
p3050
sS'download'
p3051
S'24-02-2012 16:19'
p3052
sS'trans'
p3053
S''
sS'id'
p3054
I170
sS'sent'
p3055
S'22-02-2012 14:41'
p3056
sa(dp3057
S'name'
p3058
S'marco gloder'
p3059
sS'checkin'
p3060
I00
sS'payment'
p3061
S'Bank transfer'
p3062
sS'download'
p3063
S'24-02-2012 16:19'
p3064
sS'id'
p3065
I171
sS'pdfcode'
p3066
S'hGXws'
p3067
sS'date'
p3068
S'14/02/2012'
p3069
sS'trans'
p3070
S''
sS'email'
p3071
S'spiderman7791@hotmail.com'
p3072
sS'sent'
p3073
S'22-02-2012 14:41'
p3074
sa(dp3075
S'name'
p3076
S'marco gloder'
p3077
sS'checkin'
p3078
I00
sS'payment'
p3079
S'Bank transfer'
p3080
sS'date'
p3081
S'14/02/2012'
p3082
sS'email'
p3083
S'spiderman7791@hotmail.com'
p3084
sS'pdfcode'
p3085
S'mh01h'
p3086
sS'download'
p3087
S'24-02-2012 16:18'
p3088
sS'trans'
p3089
S''
sS'id'
p3090
I172
sS'sent'
p3091
S'22-02-2012 14:41'
p3092
sa(dp3093
S'name'
p3094
S'marco gloder'
p3095
sS'checkin'
p3096
I00
sS'payment'
p3097
S'Bank transfer'
p3098
sS'download'
p3099
S'24-02-2012 16:18'
p3100
sS'id'
p3101
I173
sS'pdfcode'
p3102
S'a3hwP'
p3103
sS'date'
p3104
S'14/02/2012'
p3105
sS'trans'
p3106
S''
sS'email'
p3107
S'spiderman7791@hotmail.com'
p3108
sS'sent'
p3109
S'22-02-2012 14:41'
p3110
sa(dp3111
S'name'
p3112
S'marco gloder'
p3113
sS'checkin'
p3114
I00
sS'payment'
p3115
S'Bank transfer'
p3116
sS'date'
p3117
S'14/02/2012'
p3118
sS'email'
p3119
S'spiderman7791@hotmail.com'
p3120
sS'pdfcode'
p3121
S'xRhnb'
p3122
sS'download'
p3123
S'24-02-2012 16:18'
p3124
sS'trans'
p3125
S''
sS'id'
p3126
I174
sS'sent'
p3127
S'22-02-2012 14:41'
p3128
sa(dp3129
S'name'
p3130
S'marco gloder'
p3131
sS'checkin'
p3132
I00
sS'payment'
p3133
S'Bank transfer'
p3134
sS'download'
p3135
S'24-02-2012 16:18'
p3136
sS'id'
p3137
I175
sS'pdfcode'
p3138
S'AvggV'
p3139
sS'date'
p3140
S'14/02/2012'
p3141
sS'trans'
p3142
S''
sS'email'
p3143
S'spiderman7791@hotmail.com'
p3144
sS'sent'
p3145
S'22-02-2012 14:41'
p3146
sa(dp3147
S'name'
p3148
S'marco gloder'
p3149
sS'checkin'
p3150
I00
sS'payment'
p3151
S'Bank transfer'
p3152
sS'date'
p3153
S'14/02/2012'
p3154
sS'email'
p3155
S'spiderman7791@hotmail.com'
p3156
sS'pdfcode'
p3157
S'PRUzV'
p3158
sS'download'
p3159
S'24-02-2012 16:18'
p3160
sS'trans'
p3161
S''
sS'id'
p3162
I176
sS'sent'
p3163
S'22-02-2012 14:41'
p3164
sa(dp3165
S'name'
p3166
S'marco gloder'
p3167
sS'checkin'
p3168
I00
sS'payment'
p3169
S'Bank transfer'
p3170
sS'download'
p3171
S'24-02-2012 16:17'
p3172
sS'id'
p3173
I177
sS'pdfcode'
p3174
S'ZnO5O'
p3175
sS'date'
p3176
S'14/02/2012'
p3177
sS'trans'
p3178
S''
sS'email'
p3179
S'spiderman7791@hotmail.com'
p3180
sS'sent'
p3181
S'22-02-2012 14:41'
p3182
sa(dp3183
S'name'
p3184
S'marco gloder'
p3185
sS'checkin'
p3186
I00
sS'payment'
p3187
S'Bank transfer'
p3188
sS'date'
p3189
S'14/02/2012'
p3190
sS'email'
p3191
S'spiderman7791@hotmail.com'
p3192
sS'pdfcode'
p3193
S'sy875'
p3194
sS'download'
p3195
S'24-02-2012 16:17'
p3196
sS'trans'
p3197
S''
sS'id'
p3198
I178
sS'sent'
p3199
S'22-02-2012 14:41'
p3200
sa(dp3201
S'name'
p3202
S'marco gloder'
p3203
sS'checkin'
p3204
I00
sS'payment'
p3205
S'Bank transfer'
p3206
sS'download'
p3207
S'24-02-2012 16:17'
p3208
sS'id'
p3209
I179
sS'pdfcode'
p3210
S'xRzuv'
p3211
sS'date'
p3212
S'14/02/2012'
p3213
sS'trans'
p3214
S''
sS'email'
p3215
S'spiderman7791@hotmail.com'
p3216
sS'sent'
p3217
S'22-02-2012 14:41'
p3218
sa(dp3219
S'name'
p3220
S'marco gloder'
p3221
sS'checkin'
p3222
I00
sS'payment'
p3223
S'Bank transfer'
p3224
sS'date'
p3225
S'14/02/2012'
p3226
sS'email'
p3227
S'spiderman7791@hotmail.com'
p3228
sS'pdfcode'
p3229
S'1aOmc'
p3230
sS'download'
p3231
S'24-02-2012 16:17'
p3232
sS'trans'
p3233
S''
sS'id'
p3234
I180
sS'sent'
p3235
S'22-02-2012 14:41'
p3236
sa(dp3237
S'name'
p3238
S'marco gloder'
p3239
sS'checkin'
p3240
I00
sS'payment'
p3241
S'Bank transfer'
p3242
sS'download'
p3243
S'24-02-2012 16:17'
p3244
sS'id'
p3245
I181
sS'pdfcode'
p3246
S'6ojPV'
p3247
sS'date'
p3248
S'14/02/2012'
p3249
sS'trans'
p3250
S''
sS'email'
p3251
S'spiderman7791@hotmail.com'
p3252
sS'sent'
p3253
S'22-02-2012 14:41'
p3254
sa(dp3255
S'name'
p3256
S'marco gloder'
p3257
sS'checkin'
p3258
I00
sS'payment'
p3259
S'Bank transfer'
p3260
sS'date'
p3261
S'14/02/2012'
p3262
sS'email'
p3263
S'spiderman7791@hotmail.com'
p3264
sS'pdfcode'
p3265
S'uMvuE'
p3266
sS'download'
p3267
S'24-02-2012 16:17'
p3268
sS'trans'
p3269
S''
sS'id'
p3270
I182
sS'sent'
p3271
S'22-02-2012 14:42'
p3272
sa(dp3273
S'name'
p3274
S'marco gloder'
p3275
sS'checkin'
p3276
I00
sS'payment'
p3277
S'Bank transfer'
p3278
sS'download'
p3279
S'24-02-2012 16:17'
p3280
sS'id'
p3281
I183
sS'pdfcode'
p3282
S'2Rjqk'
p3283
sS'date'
p3284
S'14/02/2012'
p3285
sS'trans'
p3286
S''
sS'email'
p3287
S'spiderman7791@hotmail.com'
p3288
sS'sent'
p3289
S'22-02-2012 14:42'
p3290
sa(dp3291
S'name'
p3292
S'marco gloder'
p3293
sS'checkin'
p3294
I00
sS'payment'
p3295
S'Bank transfer'
p3296
sS'date'
p3297
S'14/02/2012'
p3298
sS'email'
p3299
S'spiderman7791@hotmail.com'
p3300
sS'pdfcode'
p3301
S'X4q2z'
p3302
sS'download'
p3303
S'24-02-2012 16:16'
p3304
sS'trans'
p3305
S''
sS'id'
p3306
I184
sS'sent'
p3307
S'22-02-2012 14:42'
p3308
sa(dp3309
S'name'
p3310
S'marco gloder'
p3311
sS'checkin'
p3312
I00
sS'payment'
p3313
S'Bank transfer'
p3314
sS'download'
p3315
S'24-02-2012 16:16'
p3316
sS'id'
p3317
I185
sS'pdfcode'
p3318
S'9CsC1'
p3319
sS'date'
p3320
S'14/02/2012'
p3321
sS'trans'
p3322
S''
sS'email'
p3323
S'spiderman7791@hotmail.com'
p3324
sS'sent'
p3325
S'22-02-2012 14:42'
p3326
sa(dp3327
S'name'
p3328
S'marco gloder'
p3329
sS'checkin'
p3330
I00
sS'payment'
p3331
S'Bank transfer'
p3332
sS'date'
p3333
S'14/02/2012'
p3334
sS'email'
p3335
S'spiderman7791@hotmail.com'
p3336
sS'pdfcode'
p3337
S'b5F5m'
p3338
sS'download'
p3339
S'24-02-2012 16:16'
p3340
sS'trans'
p3341
S''
sS'id'
p3342
I186
sS'sent'
p3343
S'22-02-2012 14:42'
p3344
sa(dp3345
S'name'
p3346
S'marco gloder'
p3347
sS'checkin'
p3348
I00
sS'payment'
p3349
S'Bank transfer'
p3350
sS'download'
p3351
S'24-02-2012 16:16'
p3352
sS'id'
p3353
I187
sS'pdfcode'
p3354
S'ySQL1'
p3355
sS'date'
p3356
S'14/02/2012'
p3357
sS'trans'
p3358
S''
sS'email'
p3359
S'spiderman7791@hotmail.com'
p3360
sS'sent'
p3361
S'22-02-2012 14:42'
p3362
sa(dp3363
S'name'
p3364
S'marco gloder'
p3365
sS'checkin'
p3366
I00
sS'payment'
p3367
S'Bank transfer'
p3368
sS'date'
p3369
S'14/02/2012'
p3370
sS'email'
p3371
S'spiderman7791@hotmail.com'
p3372
sS'pdfcode'
p3373
S'DQz2y'
p3374
sS'download'
p3375
S'24-02-2012 16:16'
p3376
sS'trans'
p3377
S''
sS'id'
p3378
I188
sS'sent'
p3379
S'22-02-2012 14:42'
p3380
sa(dp3381
S'name'
p3382
S'marco gloder'
p3383
sS'checkin'
p3384
I00
sS'payment'
p3385
S'Bank transfer'
p3386
sS'download'
p3387
S'24-02-2012 16:16'
p3388
sS'id'
p3389
I189
sS'pdfcode'
p3390
S'TdsuZ'
p3391
sS'date'
p3392
S'14/02/2012'
p3393
sS'trans'
p3394
S''
sS'email'
p3395
S'spiderman7791@hotmail.com'
p3396
sS'sent'
p3397
S'22-02-2012 14:42'
p3398
sa(dp3399
S'name'
p3400
S'EUGENIJA MARKSAITE '
p3401
sS'checkin'
p3402
I00
sS'payment'
p3403
S'Bank transfer'
p3404
sS'download'
p3405
S'24-02-2012 15:58'
p3406
sS'id'
p3407
I190
sS'pdfcode'
p3408
S'oNrE4'
p3409
sS'date'
p3410
S'14/02/2012'
p3411
sS'trans'
p3412
S'000000000690260 '
p3413
sS'email'
p3414
S'E.MARKSAITE@GMAIL.COM'
p3415
sS'sent'
p3416
S'14-02-2012 15:27'
p3417
sa(dp3418
S'name'
p3419
S'Elena Martynova'
p3420
sS'checkin'
p3421
I00
sS'payment'
p3422
S'Bank transfer'
p3423
sS'download'
p3424
S'24-02-2012 12:07'
p3425
sS'id'
p3426
I191
sS'pdfcode'
p3427
S'VQQau'
p3428
sS'date'
p3429
S'15/02/2012'
p3430
sS'trans'
p3431
S''
sS'email'
p3432
S'elemartynova@gmail.com'
p3433
sS'sent'
p3434
S'15-02-2012 09:48'
p3435
sa(dp3436
S'name'
p3437
S'Riccardo Ueuo Pogliani'
p3438
sS'checkin'
p3439
I00
sS'payment'
p3440
S'Bank transfer'
p3441
sS'download'
p3442
S'25-02-2012 23:18'
p3443
sS'id'
p3444
I192
sS'pdfcode'
p3445
S'plHG7'
p3446
sS'date'
p3447
S'15/02/2012'
p3448
sS'trans'
p3449
S''
sS'email'
p3450
S'uueuo@hotmail.com'
p3451
sS'sent'
p3452
S'15-02-2012 09:50'
p3453
sa(dp3454
S'name'
p3455
S'Riccardo Ueuo Pogliani'
p3456
sS'checkin'
p3457
I00
sS'payment'
p3458
S'Bank transfer'
p3459
sS'date'
p3460
S'15/02/2012'
p3461
sS'email'
p3462
S'uueuo@hotmail.com'
p3463
sS'pdfcode'
p3464
S'NDp4L'
p3465
sS'download'
p3466
S'25-02-2012 23:18'
p3467
sS'trans'
p3468
S''
sS'id'
p3469
I193
sS'sent'
p3470
S'15-02-2012 09:50'
p3471
sa(dp3472
S'name'
p3473
S'Riccardo Ueuo Pogliani'
p3474
sS'checkin'
p3475
I00
sS'payment'
p3476
S'Bank transfer'
p3477
sS'download'
p3478
S'25-02-2012 23:18'
p3479
sS'id'
p3480
I194
sS'pdfcode'
p3481
S'Dr7dZ'
p3482
sS'date'
p3483
S'15/02/2012'
p3484
sS'trans'
p3485
S''
sS'email'
p3486
S'uueuo@hotmail.com'
p3487
sS'sent'
p3488
S'15-02-2012 09:50'
p3489
sa(dp3490
S'name'
p3491
S'cedric magnien'
p3492
sS'checkin'
p3493
I00
sS'payment'
p3494
S'Paypal'
p3495
sS'date'
p3496
S'14/02/2012'
p3497
sS'email'
p3498
S'cedricmagnien@yahoo.com'
p3499
sS'pdfcode'
p3500
S'2bYUI'
p3501
sS'download'
p3502
S'15-02-2012 12:19'
p3503
sS'trans'
p3504
S''
sS'id'
p3505
I195
sS'sent'
p3506
S'15-02-2012 12:07'
p3507
sa(dp3508
S'name'
p3509
S'Giovanni Sannino '
p3510
sS'checkin'
p3511
I00
sS'payment'
p3512
S'Paypal'
p3513
sS'download'
p3514
S'15-02-2012 12:15'
p3515
sS'id'
p3516
I196
sS'pdfcode'
p3517
S's6RPt'
p3518
sS'date'
p3519
S'14/02/2012'
p3520
sS'trans'
p3521
S''
sS'email'
p3522
S'giov.sannino@gmail.com'
p3523
sS'sent'
p3524
S'15-02-2012 12:07'
p3525
sa(dp3526
S'name'
p3527
S'Giovanni Sannino '
p3528
sS'checkin'
p3529
I00
sS'payment'
p3530
S'Paypal'
p3531
sS'date'
p3532
S'14/02/2012'
p3533
sS'email'
p3534
S'giov.sannino@gmail.com'
p3535
sS'pdfcode'
p3536
S'V4zcH'
p3537
sS'download'
p3538
S'15-02-2012 12:15'
p3539
sS'trans'
p3540
S''
sS'id'
p3541
I197
sS'sent'
p3542
S'15-02-2012 12:08'
p3543
sa(dp3544
S'name'
p3545
S'Giovanni Sannino '
p3546
sS'checkin'
p3547
I00
sS'payment'
p3548
S'Paypal'
p3549
sS'download'
p3550
S'15-02-2012 12:15'
p3551
sS'id'
p3552
I198
sS'pdfcode'
p3553
S'dSfpF'
p3554
sS'date'
p3555
S'14/02/2012'
p3556
sS'trans'
p3557
S''
sS'email'
p3558
S'giov.sannino@gmail.com'
p3559
sS'sent'
p3560
S'15-02-2012 12:08'
p3561
sa(dp3562
S'name'
p3563
S'Daniela Dierna '
p3564
sS'checkin'
p3565
I00
sS'payment'
p3566
S'Bank transfer'
p3567
sS'date'
p3568
S'14/02/2012'
p3569
sS'email'
p3570
S'danilu84@hotmail.it'
p3571
sS'pdfcode'
p3572
S'9IP0c'
p3573
sS'download'
p3574
I00
sS'trans'
p3575
S''
sS'id'
p3576
I199
sS'sent'
p3577
S'15-02-2012 12:08'
p3578
sa(dp3579
S'name'
p3580
S'Daniela Dierna '
p3581
sS'checkin'
p3582
I00
sS'payment'
p3583
S'Bank transfer'
p3584
sS'download'
p3585
I00
sS'id'
p3586
I200
sS'pdfcode'
p3587
S'AAX4i'
p3588
sS'date'
p3589
S'14/02/2012'
p3590
sS'trans'
p3591
S''
sS'email'
p3592
S'danilu84@hotmail.it'
p3593
sS'sent'
p3594
S'15-02-2012 12:08'
p3595
sa(dp3596
S'name'
p3597
S'Giulio Pizzuto'
p3598
sS'checkin'
p3599
I00
sS'payment'
p3600
S'Paypal'
p3601
sS'date'
p3602
S'14/02/2012'
p3603
sS'email'
p3604
S'giulio.pizzuto@gmail.com'
p3605
sS'pdfcode'
p3606
S'8NCOp'
p3607
sS'download'
p3608
S'25-02-2012 16:52'
p3609
sS'trans'
p3610
S''
sS'id'
p3611
I201
sS'sent'
p3612
S'15-02-2012 12:08'
p3613
sa(dp3614
S'name'
p3615
S'ANTONIO CIUFFREDA'
p3616
sS'checkin'
p3617
I00
sS'payment'
p3618
S'Paypal'
p3619
sS'download'
p3620
S'22-02-2012 07:47'
p3621
sS'id'
p3622
I202
sS'pdfcode'
p3623
S'zUC30'
p3624
sS'date'
p3625
S'14/02/2012'
p3626
sS'trans'
p3627
S''
sS'email'
p3628
S'ANTCIUF@YAHOO.IT'
p3629
sS'sent'
p3630
S'15-02-2012 12:08'
p3631
sa(dp3632
S'name'
p3633
S'ANTONIO CIUFFREDA'
p3634
sS'checkin'
p3635
I00
sS'payment'
p3636
S'Paypal'
p3637
sS'date'
p3638
S'14/02/2012'
p3639
sS'email'
p3640
S'ANTCIUF@YAHOO.IT'
p3641
sS'pdfcode'
p3642
S'gRFNv'
p3643
sS'download'
p3644
S'22-02-2012 07:47'
p3645
sS'trans'
p3646
S''
sS'id'
p3647
I203
sS'sent'
p3648
S'15-02-2012 12:08'
p3649
sa(dp3650
S'name'
p3651
S'ANTONIO CIUFFREDA'
p3652
sS'checkin'
p3653
I00
sS'payment'
p3654
S'Paypal'
p3655
sS'download'
p3656
S'22-02-2012 07:46'
p3657
sS'id'
p3658
I204
sS'pdfcode'
p3659
S'NEHR6'
p3660
sS'date'
p3661
S'14/02/2012'
p3662
sS'trans'
p3663
S''
sS'email'
p3664
S'ANTCIUF@YAHOO.IT'
p3665
sS'sent'
p3666
S'15-02-2012 12:08'
p3667
sa(dp3668
S'name'
p3669
S'ANTONIO CIUFFREDA'
p3670
sS'checkin'
p3671
I00
sS'payment'
p3672
S'Paypal'
p3673
sS'date'
p3674
S'14/02/2012'
p3675
sS'email'
p3676
S'ANTCIUF@YAHOO.IT'
p3677
sS'pdfcode'
p3678
S'd1Akm'
p3679
sS'download'
p3680
S'22-02-2012 07:46'
p3681
sS'trans'
p3682
S''
sS'id'
p3683
I205
sS'sent'
p3684
S'15-02-2012 12:08'
p3685
sa(dp3686
S'name'
p3687
S'ANTONIO CIUFFREDA'
p3688
sS'checkin'
p3689
I00
sS'payment'
p3690
S'Paypal'
p3691
sS'download'
p3692
S'22-02-2012 07:45'
p3693
sS'id'
p3694
I206
sS'pdfcode'
p3695
S'bJPqH'
p3696
sS'date'
p3697
S'14/02/2012'
p3698
sS'trans'
p3699
S''
sS'email'
p3700
S'ANTCIUF@YAHOO.IT'
p3701
sS'sent'
p3702
S'15-02-2012 12:09'
p3703
sa(dp3704
S'name'
p3705
S'ANTONIO CIUFFREDA'
p3706
sS'checkin'
p3707
I00
sS'payment'
p3708
S'Paypal'
p3709
sS'date'
p3710
S'14/02/2012'
p3711
sS'email'
p3712
S'ANTCIUF@YAHOO.IT'
p3713
sS'pdfcode'
p3714
S'bPPtv'
p3715
sS'download'
p3716
S'29-02-2012 07:25'
p3717
sS'trans'
p3718
S''
sS'id'
p3719
I207
sS'sent'
p3720
S'15-02-2012 12:09'
p3721
sa(dp3722
S'name'
p3723
S'Andrea Schwarz '
p3724
sS'checkin'
p3725
I00
sS'payment'
p3726
S'Paypal'
p3727
sS'download'
p3728
S'24-02-2012 02:06'
p3729
sS'id'
p3730
I208
sS'pdfcode'
p3731
S'iANyM'
p3732
sS'date'
p3733
S'14/02/2012'
p3734
sS'trans'
p3735
S''
sS'email'
p3736
S'aschwarz@edu.uni-klu.ac.at'
p3737
sS'sent'
p3738
S'15-02-2012 12:09'
p3739
sa(dp3740
S'name'
p3741
S'Andrea Schwarz '
p3742
sS'checkin'
p3743
I00
sS'payment'
p3744
S'Paypal'
p3745
sS'date'
p3746
S'14/02/2012'
p3747
sS'email'
p3748
S'aschwarz@edu.uni-klu.ac.at'
p3749
sS'pdfcode'
p3750
S'BqYeQ'
p3751
sS'download'
p3752
S'24-02-2012 02:05'
p3753
sS'trans'
p3754
S''
sS'id'
p3755
I209
sS'sent'
p3756
S'15-02-2012 12:09'
p3757
sa(dp3758
S'name'
p3759
S'maria zacco '
p3760
sS'checkin'
p3761
I00
sS'payment'
p3762
S'Paypal'
p3763
sS'download'
p3764
I00
sS'id'
p3765
I210
sS'pdfcode'
p3766
S'xahut'
p3767
sS'date'
p3768
S'15/02/2012'
p3769
sS'trans'
p3770
S''
sS'email'
p3771
S'mari.z81@hotmail.it'
p3772
sS'sent'
p3773
S'15-02-2012 12:09'
p3774
sa(dp3775
S'name'
p3776
S'Veru gasparroni '
p3777
sS'checkin'
p3778
I00
sS'payment'
p3779
S'Bank transfer'
p3780
sS'date'
p3781
S'15/02/2012'
p3782
sS'email'
p3783
S'buongiornoanoi@gmail.com'
p3784
sS'pdfcode'
p3785
S'VkYwg'
p3786
sS'download'
p3787
S'24-02-2012 13:38'
p3788
sS'trans'
p3789
S''
sS'id'
p3790
I211
sS'sent'
p3791
S'15-02-2012 12:09'
p3792
sa(dp3793
S'name'
p3794
S'Veru gasparroni '
p3795
sS'checkin'
p3796
I00
sS'payment'
p3797
S'Bank transfer'
p3798
sS'download'
p3799
S'24-02-2012 13:38'
p3800
sS'id'
p3801
I212
sS'pdfcode'
p3802
S'n3j79'
p3803
sS'date'
p3804
S'15/02/2012'
p3805
sS'trans'
p3806
S''
sS'email'
p3807
S'buongiornoanoi@gmail.com'
p3808
sS'sent'
p3809
S'15-02-2012 12:09'
p3810
sa(dp3811
S'name'
p3812
S'Veru gasparroni '
p3813
sS'checkin'
p3814
I00
sS'payment'
p3815
S'Bank transfer'
p3816
sS'date'
p3817
S'15/02/2012'
p3818
sS'email'
p3819
S'buongiornoanoi@gmail.com'
p3820
sS'pdfcode'
p3821
S'krizY'
p3822
sS'download'
p3823
S'24-02-2012 13:37'
p3824
sS'trans'
p3825
S''
sS'id'
p3826
I213
sS'sent'
p3827
S'15-02-2012 12:09'
p3828
sa(dp3829
S'name'
p3830
S'Veru gasparroni '
p3831
sS'checkin'
p3832
I00
sS'payment'
p3833
S'Bank transfer'
p3834
sS'download'
p3835
S'24-02-2012 13:37'
p3836
sS'id'
p3837
I214
sS'pdfcode'
p3838
S'lprXV'
p3839
sS'date'
p3840
S'15/02/2012'
p3841
sS'trans'
p3842
S''
sS'email'
p3843
S'buongiornoanoi@gmail.com'
p3844
sS'sent'
p3845
S'15-02-2012 12:09'
p3846
sa(dp3847
S'name'
p3848
S'Veru gasparroni '
p3849
sS'checkin'
p3850
I00
sS'payment'
p3851
S'Bank transfer'
p3852
sS'date'
p3853
S'15/02/2012'
p3854
sS'email'
p3855
S'buongiornoanoi@gmail.com'
p3856
sS'pdfcode'
p3857
S'cbpEj'
p3858
sS'download'
p3859
S'24-02-2012 13:37'
p3860
sS'trans'
p3861
S''
sS'id'
p3862
I215
sS'sent'
p3863
S'15-02-2012 12:09'
p3864
sa(dp3865
S'name'
p3866
S'Veru gasparroni '
p3867
sS'checkin'
p3868
I00
sS'payment'
p3869
S'Bank transfer'
p3870
sS'download'
p3871
S'24-02-2012 13:37'
p3872
sS'id'
p3873
I216
sS'pdfcode'
p3874
S'W9bkE'
p3875
sS'date'
p3876
S'15/02/2012'
p3877
sS'trans'
p3878
S''
sS'email'
p3879
S'buongiornoanoi@gmail.com'
p3880
sS'sent'
p3881
S'15-02-2012 12:10'
p3882
sa(dp3883
S'name'
p3884
S'Veru gasparroni '
p3885
sS'checkin'
p3886
I00
sS'payment'
p3887
S'Bank transfer'
p3888
sS'date'
p3889
S'15/02/2012'
p3890
sS'email'
p3891
S'buongiornoanoi@gmail.com'
p3892
sS'pdfcode'
p3893
S'WwzsA'
p3894
sS'download'
p3895
S'24-02-2012 13:36'
p3896
sS'trans'
p3897
S''
sS'id'
p3898
I217
sS'sent'
p3899
S'15-02-2012 12:10'
p3900
sa(dp3901
S'name'
p3902
S'BINA PARRILLA'
p3903
sS'checkin'
p3904
I00
sS'payment'
p3905
S'Bank transfer'
p3906
sS'download'
p3907
S'25-02-2012 22:12'
p3908
sS'id'
p3909
I218
sS'pdfcode'
p3910
S'n33yP'
p3911
sS'date'
p3912
S'13/02/2012'
p3913
sS'trans'
p3914
S'000000003215300 '
p3915
sS'email'
p3916
S'BINAPARRILLA@HOTMAIL.COM'
p3917
sS'sent'
p3918
S'15-02-2012 15:55'
p3919
sa(dp3920
S'name'
p3921
S'BINA PARRILLA'
p3922
sS'checkin'
p3923
I00
sS'payment'
p3924
S'Bank transfer'
p3925
sS'date'
p3926
S'13/02/2012'
p3927
sS'email'
p3928
S'BINAPARRILLA@HOTMAIL.COM'
p3929
sS'pdfcode'
p3930
S'ebUBe'
p3931
sS'download'
p3932
S'25-02-2012 22:12'
p3933
sS'trans'
p3934
S'000000003215300 '
p3935
sS'id'
p3936
I219
sS'sent'
p3937
S'15-02-2012 15:55'
p3938
sa(dp3939
S'name'
p3940
S'BINA PARRILLA'
p3941
sS'checkin'
p3942
I00
sS'payment'
p3943
S'Bank transfer'
p3944
sS'download'
p3945
S'25-02-2012 22:11'
p3946
sS'id'
p3947
I220
sS'pdfcode'
p3948
S'Qz6kB'
p3949
sS'date'
p3950
S'13/02/2012'
p3951
sS'trans'
p3952
S'000000003215300 '
p3953
sS'email'
p3954
S'BINAPARRILLA@HOTMAIL.COM'
p3955
sS'sent'
p3956
S'15-02-2012 15:55'
p3957
sa(dp3958
S'name'
p3959
S'BINA PARRILLA'
p3960
sS'checkin'
p3961
I00
sS'payment'
p3962
S'Bank transfer'
p3963
sS'date'
p3964
S'13/02/2012'
p3965
sS'email'
p3966
S'BINAPARRILLA@HOTMAIL.COM'
p3967
sS'pdfcode'
p3968
S'tg7Jf'
p3969
sS'download'
p3970
S'25-02-2012 22:14'
p3971
sS'trans'
p3972
S'000000003215300 '
p3973
sS'id'
p3974
I221
sS'sent'
p3975
S'15-02-2012 15:55'
p3976
sa(dp3977
S'name'
p3978
S'BINA PARRILLA'
p3979
sS'checkin'
p3980
I00
sS'payment'
p3981
S'Bank transfer'
p3982
sS'download'
p3983
S'25-02-2012 22:10'
p3984
sS'id'
p3985
I222
sS'pdfcode'
p3986
S'kIj8S'
p3987
sS'date'
p3988
S'13/02/2012'
p3989
sS'trans'
p3990
S'000000003215300 '
p3991
sS'email'
p3992
S'BINAPARRILLA@HOTMAIL.COM'
p3993
sS'sent'
p3994
S'15-02-2012 15:55'
p3995
sa(dp3996
S'name'
p3997
S'giuseppina barrotta'
p3998
sS'checkin'
p3999
I00
sS'payment'
p4000
S'Bank transfer'
p4001
sS'date'
p4002
S'13/02/2012'
p4003
sS'email'
p4004
S'giulio.biscaro@gmail.com '
p4005
sS'pdfcode'
p4006
S'xZhhi'
p4007
sS'download'
p4008
I00
sS'trans'
p4009
S'40418122304 '
p4010
sS'id'
p4011
I223
sS'sent'
p4012
S'15-02-2012 15:56'
p4013
sa(dp4014
S'name'
p4015
S'giuseppina barrotta'
p4016
sS'checkin'
p4017
I00
sS'payment'
p4018
S'Bank transfer'
p4019
sS'download'
p4020
S'15-02-2012 16:19'
p4021
sS'id'
p4022
I224
sS'pdfcode'
p4023
S'e9j0t'
p4024
sS'date'
p4025
S'13/02/2012'
p4026
sS'trans'
p4027
S'40418122304 '
p4028
sS'email'
p4029
S'giulio.biscaro@gmail.com '
p4030
sS'sent'
p4031
S'15-02-2012 15:56'
p4032
sa(dp4033
S'name'
p4034
S'giuseppina barrotta'
p4035
sS'checkin'
p4036
I00
sS'payment'
p4037
S'Bank transfer'
p4038
sS'date'
p4039
S'13/02/2012'
p4040
sS'email'
p4041
S'giulio.biscaro@gmail.com '
p4042
sS'pdfcode'
p4043
S'NRziz'
p4044
sS'download'
p4045
S'15-02-2012 16:19'
p4046
sS'trans'
p4047
S'40418122304 '
p4048
sS'id'
p4049
I225
sS'sent'
p4050
S'15-02-2012 15:56'
p4051
sa(dp4052
S'name'
p4053
S'giuseppina barrotta'
p4054
sS'checkin'
p4055
I00
sS'payment'
p4056
S'Bank transfer'
p4057
sS'download'
p4058
S'15-02-2012 16:19'
p4059
sS'id'
p4060
I226
sS'pdfcode'
p4061
S'vUPuh'
p4062
sS'date'
p4063
S'13/02/2012'
p4064
sS'trans'
p4065
S'40418122304 '
p4066
sS'email'
p4067
S'giulio.biscaro@gmail.com '
p4068
sS'sent'
p4069
S'15-02-2012 15:56'
p4070
sa(dp4071
S'name'
p4072
S'NELLO GARCIA GRIMALDI'
p4073
sS'checkin'
p4074
I00
sS'payment'
p4075
S'Bank transfer'
p4076
sS'date'
p4077
S''
sS'email'
p4078
S'ANIELLOGRIMALDI@GMAIL.COM'
p4079
sS'pdfcode'
p4080
S'yJMHG'
p4081
sS'download'
p4082
S'22-02-2012 14:07'
p4083
sS'trans'
p4084
S'000000000691222'
p4085
sS'id'
p4086
I227
sS'sent'
p4087
S'15-02-2012 15:56'
p4088
sa(dp4089
S'name'
p4090
S'Giuseppe Gargaro '
p4091
sS'checkin'
p4092
I00
sS'payment'
p4093
S'Paypal'
p4094
sS'date'
p4095
S'15/02/2012'
p4096
sS'email'
p4097
S'gargaro_simona@yahoo.it'
p4098
sS'pdfcode'
p4099
S'eP9rv'
p4100
sS'download'
p4101
I00
sS'trans'
p4102
S''
sS'id'
p4103
I228
sS'sent'
p4104
S'16-02-2012 12:46'
p4105
sa(dp4106
S'name'
p4107
S'Marco Raia '
p4108
sS'checkin'
p4109
I00
sS'payment'
p4110
S'Paypal'
p4111
sS'download'
p4112
S'16-02-2012 12:51'
p4113
sS'id'
p4114
I229
sS'pdfcode'
p4115
S'diYeT'
p4116
sS'date'
p4117
S'15/02/2012'
p4118
sS'trans'
p4119
S''
sS'email'
p4120
S'raia5@libero.it'
p4121
sS'sent'
p4122
S'16-02-2012 12:46'
p4123
sa(dp4124
S'name'
p4125
S'XIAOHAN LI '
p4126
sS'checkin'
p4127
I00
sS'payment'
p4128
S'Paypal'
p4129
sS'date'
p4130
S'15/02/2012'
p4131
sS'email'
p4132
S'XH.EIRENE@GMAIL.COM'
p4133
sS'pdfcode'
p4134
S'LYpDk'
p4135
sS'download'
p4136
S'16-02-2012 12:52'
p4137
sS'trans'
p4138
S''
sS'id'
p4139
I230
sS'sent'
p4140
S'16-02-2012 12:46'
p4141
sa(dp4142
S'name'
p4143
S'Cecilia Kovacs '
p4144
sS'checkin'
p4145
I00
sS'payment'
p4146
S'Paypal'
p4147
sS'download'
p4148
S'20-02-2012 10:16'
p4149
sS'id'
p4150
I231
sS'pdfcode'
p4151
S'IoCP7'
p4152
sS'date'
p4153
S'15/02/2012'
p4154
sS'trans'
p4155
S''
sS'email'
p4156
S'kcili11@gmail.com'
p4157
sS'sent'
p4158
S'16-02-2012 12:46'
p4159
sa(dp4160
S'name'
p4161
S'Cecilia Kovacs '
p4162
sS'checkin'
p4163
I00
sS'payment'
p4164
S'Paypal'
p4165
sS'date'
p4166
S'15/02/2012'
p4167
sS'email'
p4168
S'kcili11@gmail.com'
p4169
sS'pdfcode'
p4170
S'OuiSa'
p4171
sS'download'
p4172
S'20-02-2012 10:13'
p4173
sS'trans'
p4174
S''
sS'id'
p4175
I232
sS'sent'
p4176
S'16-02-2012 12:46'
p4177
sa(dp4178
S'name'
p4179
S'Giuseppe Mantarro '
p4180
sS'checkin'
p4181
I00
sS'payment'
p4182
S'Paypal'
p4183
sS'download'
p4184
S'17-02-2012 10:06'
p4185
sS'id'
p4186
I233
sS'pdfcode'
p4187
S'kuxkg'
p4188
sS'date'
p4189
S'15/02/2012'
p4190
sS'trans'
p4191
S''
sS'email'
p4192
S'giuseppe.mantarro@infinito.it'
p4193
sS'sent'
p4194
S'16-02-2012 12:46'
p4195
sa(dp4196
S'name'
p4197
S'EVANGELIA HATZIPEGIOU '
p4198
sS'checkin'
p4199
I00
sS'payment'
p4200
S'Paypal'
p4201
sS'date'
p4202
S'15/02/2012'
p4203
sS'email'
p4204
S'evita.hat@gmail.com'
p4205
sS'pdfcode'
p4206
S'II8bz'
p4207
sS'download'
p4208
S'25-02-2012 10:48'
p4209
sS'trans'
p4210
S''
sS'id'
p4211
I234
sS'sent'
p4212
S'16-02-2012 12:46'
p4213
sa(dp4214
S'name'
p4215
S'EVANGELIA HATZIPEGIOU '
p4216
sS'checkin'
p4217
I00
sS'payment'
p4218
S'Paypal'
p4219
sS'download'
p4220
S'25-02-2012 10:46'
p4221
sS'id'
p4222
I235
sS'pdfcode'
p4223
S'aGbG8'
p4224
sS'date'
p4225
S'15/02/2012'
p4226
sS'trans'
p4227
S''
sS'email'
p4228
S'evita.hat@gmail.com'
p4229
sS'sent'
p4230
S'16-02-2012 12:46'
p4231
sa(dp4232
S'name'
p4233
S'Micha\xc3\xabl LOISON'
p4234
sS'checkin'
p4235
I00
sS'payment'
p4236
S'Bank transfer'
p4237
sS'download'
p4238
S'17-02-2012 21:21'
p4239
sS'id'
p4240
I236
sS'pdfcode'
p4241
S'xW6ls'
p4242
sS'date'
p4243
S'15/02/2012'
p4244
sS'trans'
p4245
S'000000000691291 '
p4246
sS'email'
p4247
S'loison.michael@gmail.com'
p4248
sS'sent'
p4249
S'16-02-2012 12:46'
p4250
sa(dp4251
S'name'
p4252
S'DAVIDE LUISE '
p4253
sS'checkin'
p4254
I00
sS'payment'
p4255
S'Bank transfer'
p4256
sS'date'
p4257
S'16/02/12'
p4258
sS'email'
p4259
S'DVD0288@GMAIL.COM'
p4260
sS'pdfcode'
p4261
S'zlmQw'
p4262
sS'download'
p4263
S'26-02-2012 00:09'
p4264
sS'trans'
p4265
S''
sS'id'
p4266
I237
sS'sent'
p4267
S'16-02-2012 15:33'
p4268
sa(dp4269
S'name'
p4270
S'DAVIDE LUISE '
p4271
sS'checkin'
p4272
I00
sS'payment'
p4273
S'Bank transfer'
p4274
sS'download'
p4275
S'26-02-2012 00:09'
p4276
sS'id'
p4277
I238
sS'pdfcode'
p4278
S'HLMzc'
p4279
sS'date'
p4280
S'16/02/12'
p4281
sS'trans'
p4282
S''
sS'email'
p4283
S'DVD0288@GMAIL.COM'
p4284
sS'sent'
p4285
S'16-02-2012 15:33'
p4286
sa(dp4287
S'name'
p4288
S'TOMMASO.MANDORINo'
p4289
sS'checkin'
p4290
I00
sS'payment'
p4291
S'Bank transfer'
p4292
sS'date'
p4293
S'16/02/12'
p4294
sS'email'
p4295
S'TOMMASO.MANDORINO@TISCALI.IT '
p4296
sS'pdfcode'
p4297
S'JwW4V'
p4298
sS'download'
p4299
S'16-02-2012 16:27'
p4300
sS'trans'
p4301
S''
sS'id'
p4302
I239
sS'sent'
p4303
S'16-02-2012 15:33'
p4304
sa(dp4305
S'name'
p4306
S'simone costa'
p4307
sS'checkin'
p4308
I00
sS'payment'
p4309
S'Bank transfer'
p4310
sS'download'
p4311
S'16-02-2012 18:32'
p4312
sS'id'
p4313
I240
sS'pdfcode'
p4314
S'EWYZy'
p4315
sS'date'
p4316
S'16/02/12'
p4317
sS'trans'
p4318
S'000000000691599 '
p4319
sS'email'
p4320
S'simocorbe@libero.it'
p4321
sS'sent'
p4322
S'16-02-2012 15:32'
p4323
sa(dp4324
S'name'
p4325
S'Centofanti Paolo'
p4326
sS'checkin'
p4327
I00
sS'payment'
p4328
S'Bank transfer'
p4329
sS'date'
p4330
S'16/02/12'
p4331
sS'email'
p4332
S'roberto.marangoni@gmail.com'
p4333
sS'pdfcode'
p4334
S'7dysp'
p4335
sS'download'
p4336
S'17-02-2012 10:42'
p4337
sS'trans'
p4338
S'000000000691316 '
p4339
sS'id'
p4340
I241
sS'sent'
p4341
S'16-02-2012 15:32'
p4342
sa(dp4343
S'name'
p4344
S'Centofanti Paolo'
p4345
sS'checkin'
p4346
I00
sS'payment'
p4347
S'Bank transfer'
p4348
sS'download'
p4349
S'17-02-2012 10:42'
p4350
sS'id'
p4351
I242
sS'pdfcode'
p4352
S'OUfPg'
p4353
sS'date'
p4354
S'16/02/12'
p4355
sS'trans'
p4356
S'000000000691316 '
p4357
sS'email'
p4358
S'roberto.marangoni@gmail.com'
p4359
sS'sent'
p4360
S'16-02-2012 15:32'
p4361
sa(dp4362
S'name'
p4363
S'luca patrizio'
p4364
sS'checkin'
p4365
I00
sS'payment'
p4366
S'Bank transfer'
p4367
sS'date'
p4368
S''
sS'email'
p4369
S'lucapatrizio@gmail.com'
p4370
sS'pdfcode'
p4371
S'lxQtv'
p4372
sS'download'
p4373
S'25-02-2012 21:04'
p4374
sS'trans'
p4375
S''
sS'id'
p4376
I243
sS'sent'
p4377
S'17-02-2012 10:14'
p4378
sa(dp4379
S'name'
p4380
S'alessandro cardone'
p4381
sS'checkin'
p4382
I00
sS'payment'
p4383
S'Bank transfer'
p4384
sS'download'
p4385
S'24-02-2012 13:00'
p4386
sS'id'
p4387
I244
sS'pdfcode'
p4388
S'6Y2Fw'
p4389
sS'date'
p4390
S'15/02/2012'
p4391
sS'trans'
p4392
S'14524689110 '
p4393
sS'email'
p4394
S'alessandro.cardone@gmail.com'
p4395
sS'sent'
p4396
S'17-02-2012 10:14'
p4397
sa(dp4398
S'name'
p4399
S'alessandro cardone'
p4400
sS'checkin'
p4401
I00
sS'payment'
p4402
S'Bank transfer'
p4403
sS'date'
p4404
S'15/02/2012'
p4405
sS'email'
p4406
S'alessandro.cardone@gmail.com'
p4407
sS'pdfcode'
p4408
S'tASNS'
p4409
sS'download'
p4410
S'01-03-2012 23:36'
p4411
sS'trans'
p4412
S'14524689110 '
p4413
sS'id'
p4414
I245
sS'sent'
p4415
S'17-02-2012 10:15'
p4416
sa(dp4417
S'name'
p4418
S'Valerio Maggipinto'
p4419
sS'checkin'
p4420
I00
sS'payment'
p4421
S'Paypal'
p4422
sS'date'
p4423
S'15/02/2012'
p4424
sS'email'
p4425
S'valeriomaggipinto@libero.it'
p4426
sS'pdfcode'
p4427
S'dAKMB'
p4428
sS'download'
p4429
S'17-02-2012 16:52'
p4430
sS'trans'
p4431
S''
sS'id'
p4432
I246
sS'sent'
p4433
S'17-02-2012 10:30'
p4434
sa(dp4435
S'name'
p4436
S'sandra acquavia'
p4437
sS'checkin'
p4438
I00
sS'payment'
p4439
S'Paypal'
p4440
sS'download'
p4441
S'17-02-2012 12:19'
p4442
sS'id'
p4443
I247
sS'pdfcode'
p4444
S'F6foq'
p4445
sS'date'
p4446
S'15/02/2012'
p4447
sS'trans'
p4448
S''
sS'email'
p4449
S'sasy_a@tiscali.it'
p4450
sS'sent'
p4451
S'17-02-2012 10:30'
p4452
sa(dp4453
S'name'
p4454
S'sandra acquavia'
p4455
sS'checkin'
p4456
I00
sS'payment'
p4457
S'Paypal'
p4458
sS'date'
p4459
S'15/02/2012'
p4460
sS'email'
p4461
S'sasy_a@tiscali.it'
p4462
sS'pdfcode'
p4463
S'PvlPU'
p4464
sS'download'
p4465
S'17-02-2012 12:20'
p4466
sS'trans'
p4467
S''
sS'id'
p4468
I248
sS'sent'
p4469
S'17-02-2012 10:30'
p4470
sa(dp4471
S'name'
p4472
S'MIRKO ZANNONI '
p4473
sS'checkin'
p4474
I00
sS'payment'
p4475
S'Paypal'
p4476
sS'download'
p4477
S'17-02-2012 13:21'
p4478
sS'id'
p4479
I249
sS'pdfcode'
p4480
S'5RRSQ'
p4481
sS'date'
p4482
S'15/02/2012'
p4483
sS'trans'
p4484
S''
sS'email'
p4485
S'mirkone.minto@yahoo.it'
p4486
sS'sent'
p4487
S'17-02-2012 10:30'
p4488
sa(dp4489
S'name'
p4490
S'Andrea Praderio'
p4491
sS'checkin'
p4492
I00
sS'payment'
p4493
S'Paypal'
p4494
sS'date'
p4495
S'16/02/2012'
p4496
sS'email'
p4497
S'andrea.praderio@gmail.com'
p4498
sS'pdfcode'
p4499
S'oIvpq'
p4500
sS'download'
p4501
S'25-02-2012 11:45'
p4502
sS'trans'
p4503
S''
sS'id'
p4504
I250
sS'sent'
p4505
S'17-02-2012 10:31'
p4506
sa(dp4507
S'name'
p4508
S'Andrea Bassi '
p4509
sS'checkin'
p4510
I00
sS'payment'
p4511
S'Paypal'
p4512
sS'download'
p4513
S'22-02-2012 17:22'
p4514
sS'id'
p4515
I251
sS'pdfcode'
p4516
S'1PoAz'
p4517
sS'date'
p4518
S'16/02/2012'
p4519
sS'trans'
p4520
S''
sS'email'
p4521
S'andrea73b@gmail.com'
p4522
sS'sent'
p4523
S'17-02-2012 10:31'
p4524
sa(dp4525
S'name'
p4526
S'Andrea Bassi '
p4527
sS'checkin'
p4528
I00
sS'payment'
p4529
S'Paypal'
p4530
sS'date'
p4531
S'16/02/2012'
p4532
sS'email'
p4533
S'andrea73b@gmail.com'
p4534
sS'pdfcode'
p4535
S'AmihX'
p4536
sS'download'
p4537
S'22-02-2012 17:22'
p4538
sS'trans'
p4539
S''
sS'id'
p4540
I252
sS'sent'
p4541
S'17-02-2012 10:31'
p4542
sa(dp4543
S'name'
p4544
S'Andrea Bassi '
p4545
sS'checkin'
p4546
I00
sS'payment'
p4547
S'Paypal'
p4548
sS'download'
p4549
S'22-02-2012 17:22'
p4550
sS'id'
p4551
I253
sS'pdfcode'
p4552
S'Ew3eO'
p4553
sS'date'
p4554
S'16/02/2012'
p4555
sS'trans'
p4556
S''
sS'email'
p4557
S'andrea73b@gmail.com'
p4558
sS'sent'
p4559
S'17-02-2012 10:31'
p4560
sa(dp4561
S'name'
p4562
S'Andrea Bassi '
p4563
sS'checkin'
p4564
I00
sS'payment'
p4565
S'Paypal'
p4566
sS'date'
p4567
S'16/02/2012'
p4568
sS'email'
p4569
S'andrea73b@gmail.com'
p4570
sS'pdfcode'
p4571
S'lAATe'
p4572
sS'download'
p4573
S'25-02-2012 09:42'
p4574
sS'trans'
p4575
S''
sS'id'
p4576
I254
sS'sent'
p4577
S'17-02-2012 10:31'
p4578
sa(dp4579
S'name'
p4580
S'Andrea Bassi '
p4581
sS'checkin'
p4582
I00
sS'payment'
p4583
S'Paypal'
p4584
sS'download'
p4585
S'25-02-2012 09:40'
p4586
sS'id'
p4587
I255
sS'pdfcode'
p4588
S'EA5zk'
p4589
sS'date'
p4590
S'16/02/2012'
p4591
sS'trans'
p4592
S''
sS'email'
p4593
S'andrea73b@gmail.com'
p4594
sS'sent'
p4595
S'17-02-2012 10:31'
p4596
sa(dp4597
S'name'
p4598
S'Tatiana Tassini '
p4599
sS'checkin'
p4600
I00
sS'payment'
p4601
S'Paypal'
p4602
sS'date'
p4603
S'16/02/2012'
p4604
sS'email'
p4605
S'tassinitatiana@hotmail.com'
p4606
sS'pdfcode'
p4607
S'fTcqN'
p4608
sS'download'
p4609
I00
sS'trans'
p4610
S''
sS'id'
p4611
I256
sS'sent'
p4612
S'17-02-2012 10:31'
p4613
sa(dp4614
S'name'
p4615
S'STEFANIA RONZIO'
p4616
sS'checkin'
p4617
I00
sS'payment'
p4618
S'Paypal'
p4619
sS'download'
p4620
S'18-02-2012 17:14'
p4621
sS'id'
p4622
I257
sS'pdfcode'
p4623
S'0avoX'
p4624
sS'date'
p4625
S'16/02/2012'
p4626
sS'trans'
p4627
S''
sS'email'
p4628
S'stefania.ronzio@gmail.com'
p4629
sS'sent'
p4630
S'17-02-2012 10:31'
p4631
sa(dp4632
S'name'
p4633
S'Anna Locika '
p4634
sS'checkin'
p4635
I00
sS'payment'
p4636
S'Paypal'
p4637
sS'date'
p4638
S'16/02/2012'
p4639
sS'email'
p4640
S'annalocika@gmail.com'
p4641
sS'pdfcode'
p4642
S'XBPir'
p4643
sS'download'
p4644
S'19-02-2012 09:23'
p4645
sS'trans'
p4646
S''
sS'id'
p4647
I258
sS'sent'
p4648
S'17-02-2012 10:31'
p4649
sa(dp4650
S'name'
p4651
S'Anna Locika '
p4652
sS'checkin'
p4653
I00
sS'payment'
p4654
S'Paypal'
p4655
sS'download'
p4656
S'19-02-2012 09:23'
p4657
sS'id'
p4658
I259
sS'pdfcode'
p4659
S'vu6Cw'
p4660
sS'date'
p4661
S'16/02/2012'
p4662
sS'trans'
p4663
S''
sS'email'
p4664
S'annalocika@gmail.com'
p4665
sS'sent'
p4666
S'17-02-2012 10:32'
p4667
sa(dp4668
S'name'
p4669
S'Stefano Cuch '
p4670
sS'checkin'
p4671
I00
sS'payment'
p4672
S'Paypal'
p4673
sS'date'
p4674
S'16/02/2012'
p4675
sS'email'
p4676
S'capitancuch@libero.it'
p4677
sS'pdfcode'
p4678
S'jHGfz'
p4679
sS'download'
p4680
S'25-02-2012 13:51'
p4681
sS'trans'
p4682
S''
sS'id'
p4683
I260
sS'sent'
p4684
S'17-02-2012 10:31'
p4685
sa(dp4686
S'name'
p4687
S'Giulio Dalia '
p4688
sS'checkin'
p4689
I00
sS'payment'
p4690
S'Paypal'
p4691
sS'download'
p4692
S'19-02-2012 00:14'
p4693
sS'id'
p4694
I261
sS'pdfcode'
p4695
S'8JHV5'
p4696
sS'date'
p4697
S'16/02/2012'
p4698
sS'trans'
p4699
S''
sS'email'
p4700
S'giulio.dalia@email.it'
p4701
sS'sent'
p4702
S'17-02-2012 10:32'
p4703
sa(dp4704
S'name'
p4705
S'Giulio Dalia '
p4706
sS'checkin'
p4707
I00
sS'payment'
p4708
S'Paypal'
p4709
sS'date'
p4710
S'16/02/2012'
p4711
sS'email'
p4712
S'giulio.dalia@email.it'
p4713
sS'pdfcode'
p4714
S'RfDq1'
p4715
sS'download'
p4716
S'19-02-2012 00:14'
p4717
sS'trans'
p4718
S''
sS'id'
p4719
I262
sS'sent'
p4720
S'17-02-2012 10:32'
p4721
sa(dp4722
S'name'
p4723
S'Giulio Dalia '
p4724
sS'checkin'
p4725
I00
sS'payment'
p4726
S'Paypal'
p4727
sS'download'
p4728
S'19-02-2012 00:15'
p4729
sS'id'
p4730
I263
sS'pdfcode'
p4731
S'htFs9'
p4732
sS'date'
p4733
S'16/02/2012'
p4734
sS'trans'
p4735
S''
sS'email'
p4736
S'giulio.dalia@email.it'
p4737
sS'sent'
p4738
S'17-02-2012 10:32'
p4739
sa(dp4740
S'name'
p4741
S'Etienne Fleury'
p4742
sS'checkin'
p4743
I00
sS'payment'
p4744
S'Paypal'
p4745
sS'date'
p4746
S'16/02/2012'
p4747
sS'email'
p4748
S'etienne.fleury@gmail.com'
p4749
sS'pdfcode'
p4750
S'IPVND'
p4751
sS'download'
p4752
S'19-02-2012 17:19'
p4753
sS'trans'
p4754
S''
sS'id'
p4755
I264
sS'sent'
p4756
S'17-02-2012 10:32'
p4757
sa(dp4758
S'name'
p4759
S'Jacco Top '
p4760
sS'checkin'
p4761
I00
sS'payment'
p4762
S'Paypal'
p4763
sS'download'
p4764
S'22-02-2012 15:43'
p4765
sS'id'
p4766
I265
sS'pdfcode'
p4767
S'P4gzW'
p4768
sS'date'
p4769
S'16/02/2012'
p4770
sS'trans'
p4771
S''
sS'email'
p4772
S'jacco.top@gmail.com'
p4773
sS'sent'
p4774
S'17-02-2012 10:32'
p4775
sa(dp4776
S'name'
p4777
S'Jacco Top '
p4778
sS'checkin'
p4779
I00
sS'payment'
p4780
S'Paypal'
p4781
sS'date'
p4782
S'16/02/2012'
p4783
sS'email'
p4784
S'jacco.top@gmail.com'
p4785
sS'pdfcode'
p4786
S'zAAJS'
p4787
sS'download'
p4788
S'22-02-2012 15:44'
p4789
sS'trans'
p4790
S''
sS'id'
p4791
I266
sS'sent'
p4792
S'17-02-2012 10:32'
p4793
sa(dp4794
S'name'
p4795
S'Daniele Faenza'
p4796
sS'checkin'
p4797
I00
sS'payment'
p4798
S'Bank transfer'
p4799
sS'date'
p4800
S'17/02/12'
p4801
sS'email'
p4802
S'masterneo@hotmail.it'
p4803
sS'pdfcode'
p4804
S'P5oZ9'
p4805
sS'download'
p4806
I00
sS'trans'
p4807
S''
sS'id'
p4808
I267
sS'sent'
p4809
S'17-02-2012 10:43'
p4810
sa(dp4811
S'name'
p4812
S'Daniele Faenza'
p4813
sS'checkin'
p4814
I00
sS'payment'
p4815
S'Bank transfer'
p4816
sS'download'
p4817
I00
sS'id'
p4818
I268
sS'pdfcode'
p4819
S'pA7us'
p4820
sS'date'
p4821
S'17/02/12'
p4822
sS'trans'
p4823
S''
sS'email'
p4824
S'masterneo@hotmail.it'
p4825
sS'sent'
p4826
S'17-02-2012 10:44'
p4827
sa(dp4828
S'name'
p4829
S'Nunziata Luana Musca '
p4830
sS'checkin'
p4831
I00
sS'payment'
p4832
S'Paypal'
p4833
sS'download'
p4834
S'25-02-2012 22:18'
p4835
sS'id'
p4836
I269
sS'pdfcode'
p4837
S'gzdQt'
p4838
sS'date'
p4839
S'17/02/2012'
p4840
sS'trans'
p4841
S''
sS'email'
p4842
S'luana.musca@gmail.com'
p4843
sS'sent'
p4844
S'18-02-2012 15:25'
p4845
sa(dp4846
S'name'
p4847
S'Nunziata Luana Musca '
p4848
sS'checkin'
p4849
I00
sS'payment'
p4850
S'Paypal'
p4851
sS'date'
p4852
S'17/02/2012'
p4853
sS'email'
p4854
S'luana.musca@gmail.com'
p4855
sS'pdfcode'
p4856
S'z6r0w'
p4857
sS'download'
p4858
S'25-02-2012 22:29'
p4859
sS'trans'
p4860
S''
sS'id'
p4861
I270
sS'sent'
p4862
S'18-02-2012 15:25'
p4863
sa(dp4864
S'name'
p4865
S'Nunziata Luana Musca '
p4866
sS'checkin'
p4867
I00
sS'payment'
p4868
S'Paypal'
p4869
sS'download'
p4870
S'25-02-2012 22:26'
p4871
sS'id'
p4872
I271
sS'pdfcode'
p4873
S'K2SSH'
p4874
sS'date'
p4875
S'17/02/2012'
p4876
sS'trans'
p4877
S''
sS'email'
p4878
S'luana.musca@gmail.com'
p4879
sS'sent'
p4880
S'18-02-2012 15:25'
p4881
sa(dp4882
S'name'
p4883
S'Chiara Salis '
p4884
sS'checkin'
p4885
I00
sS'payment'
p4886
S'Paypal'
p4887
sS'date'
p4888
S'17/02/2012'
p4889
sS'email'
p4890
S'kya82it@hotmail.com'
p4891
sS'pdfcode'
p4892
S'gZIsf'
p4893
sS'download'
p4894
S'26-02-2012 12:03'
p4895
sS'trans'
p4896
S''
sS'id'
p4897
I272
sS'sent'
p4898
S'18-02-2012 15:25'
p4899
sa(dp4900
S'name'
p4901
S'Chiara Salis '
p4902
sS'checkin'
p4903
I00
sS'payment'
p4904
S'Paypal'
p4905
sS'download'
p4906
S'25-02-2012 20:05'
p4907
sS'id'
p4908
I273
sS'pdfcode'
p4909
S'Wghqa'
p4910
sS'date'
p4911
S'17/02/2012'
p4912
sS'trans'
p4913
S''
sS'email'
p4914
S'kya82it@hotmail.com'
p4915
sS'sent'
p4916
S'18-02-2012 15:25'
p4917
sa(dp4918
S'name'
p4919
S'Chiara Salis '
p4920
sS'checkin'
p4921
I00
sS'payment'
p4922
S'Paypal'
p4923
sS'date'
p4924
S'17/02/2012'
p4925
sS'email'
p4926
S'kya82it@hotmail.com'
p4927
sS'pdfcode'
p4928
S'F2Qht'
p4929
sS'download'
p4930
S'25-02-2012 20:06'
p4931
sS'trans'
p4932
S''
sS'id'
p4933
I274
sS'sent'
p4934
S'18-02-2012 15:25'
p4935
sa(dp4936
S'name'
p4937
S'Chiara Salis '
p4938
sS'checkin'
p4939
I00
sS'payment'
p4940
S'Paypal'
p4941
sS'download'
p4942
S'25-02-2012 20:05'
p4943
sS'id'
p4944
I275
sS'pdfcode'
p4945
S'xDe6G'
p4946
sS'date'
p4947
S'17/02/2012'
p4948
sS'trans'
p4949
S''
sS'email'
p4950
S'kya82it@hotmail.com'
p4951
sS'sent'
p4952
S'18-02-2012 15:25'
p4953
sa(dp4954
S'name'
p4955
S'Samuele Tesfaghiorghis '
p4956
sS'checkin'
p4957
I00
sS'payment'
p4958
S'Paypal'
p4959
sS'date'
p4960
S'17/02/2012'
p4961
sS'email'
p4962
S'tesfa@libero.it'
p4963
sS'pdfcode'
p4964
S'8DxMH'
p4965
sS'download'
p4966
S'22-02-2012 19:54'
p4967
sS'trans'
p4968
S''
sS'id'
p4969
I276
sS'sent'
p4970
S'18-02-2012 15:25'
p4971
sa(dp4972
S'name'
p4973
S'Pierluigi Cammarano '
p4974
sS'checkin'
p4975
I00
sS'payment'
p4976
S'Paypal'
p4977
sS'download'
p4978
S'20-02-2012 09:23'
p4979
sS'id'
p4980
I277
sS'pdfcode'
p4981
S'eTVsa'
p4982
sS'date'
p4983
S'17/02/2012'
p4984
sS'trans'
p4985
S''
sS'email'
p4986
S'pierluigi.cammarano@unicredit.eu'
p4987
sS'sent'
p4988
S'18-02-2012 15:26'
p4989
sa(dp4990
S'name'
p4991
S'Domenico Panza '
p4992
sS'checkin'
p4993
I00
sS'payment'
p4994
S'Paypal'
p4995
sS'date'
p4996
S'17/02/2012'
p4997
sS'email'
p4998
S'mimmopanza@gmail.com'
p4999
sS'pdfcode'
p5000
S'JcNWC'
p5001
sS'download'
p5002
S'23-02-2012 12:59'
p5003
sS'trans'
p5004
S''
sS'id'
p5005
I278
sS'sent'
p5006
S'18-02-2012 15:26'
p5007
sa(dp5008
S'name'
p5009
S'Neri Luca '
p5010
sS'checkin'
p5011
I00
sS'payment'
p5012
S'Paypal'
p5013
sS'download'
p5014
S'25-02-2012 21:17'
p5015
sS'id'
p5016
I279
sS'pdfcode'
p5017
S'0nzD5'
p5018
sS'date'
p5019
S'17/02/2012'
p5020
sS'trans'
p5021
S''
sS'email'
p5022
S'nero74@yahoo.com'
p5023
sS'sent'
p5024
S'18-02-2012 15:26'
p5025
sa(dp5026
S'name'
p5027
S'giandomenico de franco '
p5028
sS'checkin'
p5029
I00
sS'payment'
p5030
S'Paypal'
p5031
sS'date'
p5032
S'17/02/2012'
p5033
sS'email'
p5034
S'giandomenico.defranco@email.it'
p5035
sS'pdfcode'
p5036
S'uKXFv'
p5037
sS'download'
p5038
S'25-02-2012 22:41'
p5039
sS'trans'
p5040
S''
sS'id'
p5041
I280
sS'sent'
p5042
S'18-02-2012 15:26'
p5043
sa(dp5044
S'name'
p5045
S'Marketa Zelena '
p5046
sS'checkin'
p5047
I00
sS'payment'
p5048
S'Paypal'
p5049
sS'download'
p5050
S'23-02-2012 13:50'
p5051
sS'id'
p5052
I281
sS'pdfcode'
p5053
S'dJR9i'
p5054
sS'date'
p5055
S'17/02/2012'
p5056
sS'trans'
p5057
S''
sS'email'
p5058
S'marketa_zelena@centrum.cz'
p5059
sS'sent'
p5060
S'18-02-2012 15:26'
p5061
sa(dp5062
S'name'
p5063
S'Marketa Zelena '
p5064
sS'checkin'
p5065
I00
sS'payment'
p5066
S'Paypal'
p5067
sS'date'
p5068
S'17/02/2012'
p5069
sS'email'
p5070
S'marketa_zelena@centrum.cz'
p5071
sS'pdfcode'
p5072
S'ownGg'
p5073
sS'download'
p5074
S'23-02-2012 13:42'
p5075
sS'trans'
p5076
S''
sS'id'
p5077
I282
sS'sent'
p5078
S'18-02-2012 15:26'
p5079
sa(dp5080
S'name'
p5081
S'Mara MARCHESANO '
p5082
sS'checkin'
p5083
I00
sS'payment'
p5084
S'Paypal'
p5085
sS'download'
p5086
S'21-02-2012 13:31'
p5087
sS'id'
p5088
I283
sS'pdfcode'
p5089
S'pH9ir'
p5090
sS'date'
p5091
S'17/02/2012'
p5092
sS'trans'
p5093
S''
sS'email'
p5094
S'mara.marchesano@hotmail.it'
p5095
sS'sent'
p5096
S'18-02-2012 15:26'
p5097
sa(dp5098
S'name'
p5099
S'andrea gamberini '
p5100
sS'checkin'
p5101
I00
sS'payment'
p5102
S'Paypal'
p5103
sS'date'
p5104
S'17/02/2012'
p5105
sS'email'
p5106
S'mostazet@yahoo.it'
p5107
sS'pdfcode'
p5108
S'hkG7x'
p5109
sS'download'
p5110
S'25-02-2012 15:03'
p5111
sS'trans'
p5112
S''
sS'id'
p5113
I284
sS'sent'
p5114
S'18-02-2012 15:26'
p5115
sa(dp5116
S'name'
p5117
S'TIZIANA PEVERELLI '
p5118
sS'checkin'
p5119
I00
sS'payment'
p5120
S'Paypal'
p5121
sS'download'
p5122
S'24-02-2012 08:38'
p5123
sS'id'
p5124
I285
sS'pdfcode'
p5125
S'LCSVR'
p5126
sS'date'
p5127
S'17/02/2012'
p5128
sS'trans'
p5129
S''
sS'email'
p5130
S'tizianapeverelli@hotmail.com'
p5131
sS'sent'
p5132
S'18-02-2012 15:27'
p5133
sa(dp5134
S'name'
p5135
S'TIZIANA PEVERELLI '
p5136
sS'checkin'
p5137
I00
sS'payment'
p5138
S'Paypal'
p5139
sS'date'
p5140
S'17/02/2012'
p5141
sS'email'
p5142
S'tizianapeverelli@hotmail.com'
p5143
sS'pdfcode'
p5144
S'3T5RO'
p5145
sS'download'
p5146
S'24-02-2012 08:37'
p5147
sS'trans'
p5148
S''
sS'id'
p5149
I286
sS'sent'
p5150
S'18-02-2012 15:26'
p5151
sa(dp5152
S'name'
p5153
S'TIZIANA PEVERELLI '
p5154
sS'checkin'
p5155
I00
sS'payment'
p5156
S'Paypal'
p5157
sS'download'
p5158
S'24-02-2012 08:39'
p5159
sS'id'
p5160
I287
sS'pdfcode'
p5161
S's8rnI'
p5162
sS'date'
p5163
S'17/02/2012'
p5164
sS'trans'
p5165
S''
sS'email'
p5166
S'tizianapeverelli@hotmail.com'
p5167
sS'sent'
p5168
S'18-02-2012 15:27'
p5169
sa(dp5170
S'name'
p5171
S'lorenzo giocoli '
p5172
sS'checkin'
p5173
I00
sS'payment'
p5174
S'Paypal'
p5175
sS'date'
p5176
S'18/02/2012'
p5177
sS'email'
p5178
S'putiferio@hotmail.com'
p5179
sS'pdfcode'
p5180
S'5WRCP'
p5181
sS'download'
p5182
S'25-02-2012 21:46'
p5183
sS'trans'
p5184
S''
sS'id'
p5185
I288
sS'sent'
p5186
S'19-02-2012 12:17'
p5187
sa(dp5188
S'name'
p5189
S'Valeria Gatti '
p5190
sS'checkin'
p5191
I00
sS'payment'
p5192
S'Paypal'
p5193
sS'download'
p5194
S'24-02-2012 14:53'
p5195
sS'id'
p5196
I289
sS'pdfcode'
p5197
S'wVRJd'
p5198
sS'date'
p5199
S'18/02/2012'
p5200
sS'trans'
p5201
S''
sS'email'
p5202
S'valegtt@gmail.com'
p5203
sS'sent'
p5204
S'18-02-2012 15:27'
p5205
sa(dp5206
S'name'
p5207
S'Valeria Gatti '
p5208
sS'checkin'
p5209
I00
sS'payment'
p5210
S'Paypal'
p5211
sS'date'
p5212
S'18/02/2012'
p5213
sS'email'
p5214
S'valegtt@gmail.com'
p5215
sS'pdfcode'
p5216
S'K8EbC'
p5217
sS'download'
p5218
S'24-02-2012 14:52'
p5219
sS'trans'
p5220
S''
sS'id'
p5221
I290
sS'sent'
p5222
S'18-02-2012 15:27'
p5223
sa(dp5224
S'name'
p5225
S'Andrea Loatelli '
p5226
sS'checkin'
p5227
I00
sS'payment'
p5228
S'Paypal'
p5229
sS'download'
p5230
S'23-02-2012 16:03'
p5231
sS'id'
p5232
I291
sS'pdfcode'
p5233
S'hABUL'
p5234
sS'date'
p5235
S'18/02/2012'
p5236
sS'trans'
p5237
S''
sS'email'
p5238
S'aloha_1974@hotmail.com'
p5239
sS'sent'
p5240
S'18-02-2012 15:27'
p5241
sa(dp5242
S'name'
p5243
S'DONATO MASSIMO'
p5244
sS'checkin'
p5245
I00
sS'payment'
p5246
S'Bank transfer'
p5247
sS'date'
p5248
S'17/02/12'
p5249
sS'email'
p5250
S'DIDINHO@GMAIL.COM'
p5251
sS'pdfcode'
p5252
S'PvzYz'
p5253
sS'download'
p5254
S'20-02-2012 11:36'
p5255
sS'trans'
p5256
S'000000000691918 '
p5257
sS'id'
p5258
I292
sS'sent'
p5259
S'19-02-2012 12:23'
p5260
sa(dp5261
S'name'
p5262
S'DONATO MASSIMO'
p5263
sS'checkin'
p5264
I00
sS'payment'
p5265
S'Bank transfer'
p5266
sS'download'
p5267
S'20-02-2012 11:32'
p5268
sS'id'
p5269
I293
sS'pdfcode'
p5270
S'DLSef'
p5271
sS'date'
p5272
S'17/02/12'
p5273
sS'trans'
p5274
S'000000000691918 '
p5275
sS'email'
p5276
S'DIDINHO@GMAIL.COM'
p5277
sS'sent'
p5278
S'19-02-2012 12:23'
p5279
sa(dp5280
S'name'
p5281
S'Thomas Dusch'
p5282
sS'checkin'
p5283
I00
sS'payment'
p5284
S'Bank transfer'
p5285
sS'date'
p5286
S'17/02/12'
p5287
sS'email'
p5288
S'ThomasD1@gmx.net'
p5289
sS'pdfcode'
p5290
S'LMv1K'
p5291
sS'download'
p5292
S'20-02-2012 17:45'
p5293
sS'trans'
p5294
S'000000000692054 '
p5295
sS'id'
p5296
I294
sS'sent'
p5297
S'19-02-2012 12:23'
p5298
sa(dp5299
S'name'
p5300
S'Riccardo Ueuo Pogliani'
p5301
sS'checkin'
p5302
I00
sS'payment'
p5303
S'Bank transfer'
p5304
sS'date'
p5305
S'19/02/12'
p5306
sS'email'
p5307
S'uueuo@hotmail.com'
p5308
sS'pdfcode'
p5309
S'FqxHy'
p5310
sS'download'
p5311
S'25-02-2012 23:18'
p5312
sS'trans'
p5313
S''
sS'id'
p5314
I295
sS'sent'
p5315
S'19-02-2012 12:24'
p5316
sa(dp5317
S'name'
p5318
S'Stefano Versolatto'
p5319
sS'checkin'
p5320
I00
sS'payment'
p5321
S'Bank transfer'
p5322
sS'download'
p5323
S'24-02-2012 16:33'
p5324
sS'id'
p5325
I296
sS'pdfcode'
p5326
S'2dWH7'
p5327
sS'date'
p5328
S'20/02/2012'
p5329
sS'trans'
p5330
S'82483394008 '
p5331
sS'email'
p5332
S'SIR.WASTED@GMAIL.com'
p5333
sS'sent'
p5334
S'20-02-2012 10:17'
p5335
sa(dp5336
S'name'
p5337
S'Stefano Versolatto'
p5338
sS'checkin'
p5339
I00
sS'payment'
p5340
S'Bank transfer'
p5341
sS'date'
p5342
S'20/02/2012'
p5343
sS'email'
p5344
S'SIR.WASTED@GMAIL.com'
p5345
sS'pdfcode'
p5346
S'JVzdw'
p5347
sS'download'
p5348
S'24-02-2012 16:35'
p5349
sS'trans'
p5350
S'82483394008 '
p5351
sS'id'
p5352
I297
sS'sent'
p5353
S'20-02-2012 10:17'
p5354
sa(dp5355
S'name'
p5356
S'Stefano Versolatto'
p5357
sS'checkin'
p5358
I00
sS'payment'
p5359
S'Bank transfer'
p5360
sS'download'
p5361
S'24-02-2012 16:35'
p5362
sS'id'
p5363
I298
sS'pdfcode'
p5364
S'PN7yI'
p5365
sS'date'
p5366
S'20/02/2012'
p5367
sS'trans'
p5368
S'82483394008 '
p5369
sS'email'
p5370
S'SIR.WASTED@GMAIL.com'
p5371
sS'sent'
p5372
S'20-02-2012 10:17'
p5373
sa(dp5374
S'name'
p5375
S'Stefano Versolatto'
p5376
sS'checkin'
p5377
I00
sS'payment'
p5378
S'Bank transfer'
p5379
sS'date'
p5380
S'20/02/2012'
p5381
sS'email'
p5382
S'SIR.WASTED@GMAIL.com'
p5383
sS'pdfcode'
p5384
S'OFcVZ'
p5385
sS'download'
p5386
S'24-02-2012 16:37'
p5387
sS'trans'
p5388
S'82483394008 '
p5389
sS'id'
p5390
I299
sS'sent'
p5391
S'20-02-2012 10:18'
p5392
sa(dp5393
S'name'
p5394
S'antonio bitto'
p5395
sS'checkin'
p5396
I00
sS'payment'
p5397
S'Bank transfer'
p5398
sS'date'
p5399
S'20/02/2012'
p5400
sS'email'
p5401
S'micidiale@hotmail.com'
p5402
sS'pdfcode'
p5403
S'WqAgz'
p5404
sS'download'
p5405
S'22-02-2012 10:53'
p5406
sS'trans'
p5407
S'82483394008'
p5408
sS'id'
p5409
I300
sS'sent'
p5410
S'20-02-2012 10:18'
p5411
sa(dp5412
S'name'
p5413
S'andrea pomes '
p5414
sS'checkin'
p5415
I00
sS'payment'
p5416
S'Paypal'
p5417
sS'download'
p5418
S'25-02-2012 14:22'
p5419
sS'id'
p5420
I301
sS'pdfcode'
p5421
S'KBvD5'
p5422
sS'date'
p5423
S'18/02/2012'
p5424
sS'trans'
p5425
S''
sS'email'
p5426
S'andrea_pomes@yahoo.it'
p5427
sS'sent'
p5428
S'20-02-2012 11:31'
p5429
sa(dp5430
S'name'
p5431
S'Marco Mora '
p5432
sS'checkin'
p5433
I00
sS'payment'
p5434
S'Paypal'
p5435
sS'date'
p5436
S'18/02/2012'
p5437
sS'email'
p5438
S'blacksabbath_@libero.it'
p5439
sS'pdfcode'
p5440
S'RzFxz'
p5441
sS'download'
p5442
S'20-02-2012 20:22'
p5443
sS'trans'
p5444
S''
sS'id'
p5445
I302
sS'sent'
p5446
S'20-02-2012 11:38'
p5447
sa(dp5448
S'name'
p5449
S'Federica Schiavina '
p5450
sS'checkin'
p5451
I00
sS'payment'
p5452
S'Paypal'
p5453
sS'download'
p5454
I00
sS'id'
p5455
I303
sS'pdfcode'
p5456
S'gvdik'
p5457
sS'date'
p5458
S'18/02/2012'
p5459
sS'trans'
p5460
S''
sS'email'
p5461
S'federica@edor.it'
p5462
sS'sent'
p5463
S'20-02-2012 11:38'
p5464
sa(dp5465
S'name'
p5466
S'Stefano Cuch '
p5467
sS'checkin'
p5468
I00
sS'payment'
p5469
S'Paypal'
p5470
sS'date'
p5471
S'19/02/2012'
p5472
sS'email'
p5473
S'capitancuch@libero.it'
p5474
sS'pdfcode'
p5475
S'bUqMb'
p5476
sS'download'
p5477
S'25-02-2012 13:57'
p5478
sS'trans'
p5479
S''
sS'id'
p5480
I304
sS'sent'
p5481
S'20-02-2012 11:38'
p5482
sa(dp5483
S'name'
p5484
S'Christian G\xc3\xa4rtner '
p5485
sS'checkin'
p5486
I00
sS'payment'
p5487
S'Paypal'
p5488
sS'download'
p5489
S'22-02-2012 01:00'
p5490
sS'id'
p5491
I305
sS'pdfcode'
p5492
S'Rjgvz'
p5493
sS'date'
p5494
S'19/02/2012'
p5495
sS'trans'
p5496
S''
sS'email'
p5497
S'christian.gaertner.ffm@gmx.de'
p5498
sS'sent'
p5499
S'20-02-2012 11:38'
p5500
sa(dp5501
S'name'
p5502
S'luigi angelo meazzi '
p5503
sS'checkin'
p5504
I00
sS'payment'
p5505
S'Paypal'
p5506
sS'date'
p5507
S'19/02/2012'
p5508
sS'email'
p5509
S'elenameazzi@gmail.com'
p5510
sS'pdfcode'
p5511
S'irXRP'
p5512
sS'download'
p5513
S'25-02-2012 21:09'
p5514
sS'trans'
p5515
S''
sS'id'
p5516
I306
sS'sent'
p5517
S'25-02-2012 11:52'
p5518
sa(dp5519
S'name'
p5520
S'Marco Aguzzi '
p5521
sS'checkin'
p5522
I00
sS'payment'
p5523
S'Paypal'
p5524
sS'download'
p5525
S'20-02-2012 22:29'
p5526
sS'id'
p5527
I307
sS'pdfcode'
p5528
S'1S0Hy'
p5529
sS'date'
p5530
S'19/02/2012'
p5531
sS'trans'
p5532
S''
sS'email'
p5533
S'marco.aguzzi@gmail.com'
p5534
sS'sent'
p5535
S'20-02-2012 11:38'
p5536
sa(dp5537
S'name'
p5538
S'Maria Sampaolo'
p5539
sS'checkin'
p5540
I00
sS'payment'
p5541
S'Paypal'
p5542
sS'date'
p5543
S'19/02/2012'
p5544
sS'email'
p5545
S'valekta83@yahoo.it'
p5546
sS'pdfcode'
p5547
S'U0EtW'
p5548
sS'download'
p5549
S'20-02-2012 11:43'
p5550
sS'trans'
p5551
S''
sS'id'
p5552
I308
sS'sent'
p5553
S'20-02-2012 11:38'
p5554
sa(dp5555
S'name'
p5556
S'Maria Sampaolo'
p5557
sS'checkin'
p5558
I00
sS'payment'
p5559
S'Paypal'
p5560
sS'download'
p5561
S'20-02-2012 11:43'
p5562
sS'id'
p5563
I309
sS'pdfcode'
p5564
S'g6abC'
p5565
sS'date'
p5566
S'19/02/2012'
p5567
sS'trans'
p5568
S''
sS'email'
p5569
S'valekta83@yahoo.it'
p5570
sS'sent'
p5571
S'20-02-2012 11:39'
p5572
sa(dp5573
S'name'
p5574
S'FRANCESCO STURNIOLO '
p5575
sS'checkin'
p5576
I00
sS'payment'
p5577
S'Paypal'
p5578
sS'date'
p5579
S'19/02/2012'
p5580
sS'email'
p5581
S'f.sturniolo@yahoo.it'
p5582
sS'pdfcode'
p5583
S'DGDpp'
p5584
sS'download'
p5585
S'20-02-2012 20:03'
p5586
sS'trans'
p5587
S''
sS'id'
p5588
I310
sS'sent'
p5589
S'20-02-2012 11:39'
p5590
sa(dp5591
S'name'
p5592
S'Matteo Frighi '
p5593
sS'checkin'
p5594
I00
sS'payment'
p5595
S'Paypal'
p5596
sS'download'
p5597
S'25-02-2012 13:00'
p5598
sS'id'
p5599
I311
sS'pdfcode'
p5600
S'noMHV'
p5601
sS'date'
p5602
S'20/02/2012'
p5603
sS'trans'
p5604
S''
sS'email'
p5605
S'bricchetto71@yahoo.it'
p5606
sS'sent'
p5607
S'20-02-2012 11:38'
p5608
sa(dp5609
S'name'
p5610
S'Valentina Biondi'
p5611
sS'checkin'
p5612
I00
sS'payment'
p5613
S'Paypal'
p5614
sS'date'
p5615
S'20/02/2012'
p5616
sS'email'
p5617
S'vale_biondi@hotmail.com'
p5618
sS'pdfcode'
p5619
S'3g9Ls'
p5620
sS'download'
p5621
S'21-02-2012 16:54'
p5622
sS'trans'
p5623
S''
sS'id'
p5624
I312
sS'sent'
p5625
S'20-02-2012 11:38'
p5626
sa(dp5627
S'name'
p5628
S'Valentina Biondi'
p5629
sS'checkin'
p5630
I00
sS'payment'
p5631
S'Paypal'
p5632
sS'download'
p5633
S'21-02-2012 16:55'
p5634
sS'id'
p5635
I313
sS'pdfcode'
p5636
S'Gik6D'
p5637
sS'date'
p5638
S'20/02/2012'
p5639
sS'trans'
p5640
S''
sS'email'
p5641
S'vale_biondi@hotmail.com'
p5642
sS'sent'
p5643
S'20-02-2012 11:38'
p5644
sa(dp5645
S'name'
p5646
S'Daniela Vanzelli'
p5647
sS'checkin'
p5648
I00
sS'payment'
p5649
S'Bank transfer'
p5650
sS'date'
p5651
S'20/02/2012'
p5652
sS'email'
p5653
S'daniela.vanzelli@gmail.com'
p5654
sS'pdfcode'
p5655
S'psXVT'
p5656
sS'download'
p5657
S'25-02-2012 20:53'
p5658
sS'trans'
p5659
S''
sS'id'
p5660
I314
sS'sent'
p5661
S'20-02-2012 11:56'
p5662
sa(dp5663
S'name'
p5664
S'Daniela Vanzelli'
p5665
sS'checkin'
p5666
I00
sS'payment'
p5667
S'Bank transfer'
p5668
sS'download'
p5669
I00
sS'id'
p5670
I315
sS'pdfcode'
p5671
S'ICsBy'
p5672
sS'date'
p5673
S'20/02/2012'
p5674
sS'trans'
p5675
S''
sS'email'
p5676
S'daniela.vanzelli@gmail.com'
p5677
sS'sent'
p5678
S'20-02-2012 11:39'
p5679
sa(dp5680
S'name'
p5681
S'Daniela Vanzelli'
p5682
sS'checkin'
p5683
I00
sS'payment'
p5684
S'Bank transfer'
p5685
sS'date'
p5686
S'20/02/2012'
p5687
sS'email'
p5688
S'daniela.vanzelli@gmail.com'
p5689
sS'pdfcode'
p5690
S'ndGvo'
p5691
sS'download'
p5692
S'25-02-2012 20:50'
p5693
sS'trans'
p5694
S''
sS'id'
p5695
I316
sS'sent'
p5696
S'20-02-2012 11:39'
p5697
sa(dp5698
S'name'
p5699
S'Daniela Vanzelli'
p5700
sS'checkin'
p5701
I00
sS'payment'
p5702
S'Bank transfer'
p5703
sS'download'
p5704
S'25-02-2012 20:47'
p5705
sS'id'
p5706
I317
sS'pdfcode'
p5707
S'AAAtA'
p5708
sS'date'
p5709
S'20/02/2012'
p5710
sS'trans'
p5711
S''
sS'email'
p5712
S'daniela.vanzelli@gmail.com'
p5713
sS'sent'
p5714
S'20-02-2012 11:39'
p5715
sa(dp5716
S'name'
p5717
S'Roberta Pierfederici'
p5718
sS'checkin'
p5719
I00
sS'payment'
p5720
S'Paypal'
p5721
sS'date'
p5722
S'20/02/2012'
p5723
sS'email'
p5724
S'jinhio@email.it'
p5725
sS'pdfcode'
p5726
S'YCgGr'
p5727
sS'download'
p5728
S'20-02-2012 11:55'
p5729
sS'trans'
p5730
S''
sS'id'
p5731
I318
sS'sent'
p5732
S'20-02-2012 11:39'
p5733
sa(dp5734
S'name'
p5735
S'Stefano Fiacco'
p5736
sS'checkin'
p5737
I00
sS'payment'
p5738
S'Paypal'
p5739
sS'download'
p5740
I00
sS'id'
p5741
I319
sS'pdfcode'
p5742
S'XqEKC'
p5743
sS'date'
p5744
S'20/02/2012'
p5745
sS'trans'
p5746
S''
sS'email'
p5747
S'jinhio@email.it'
p5748
sS'sent'
p5749
S'20-02-2012 11:40'
p5750
sa(dp5751
S'name'
p5752
S'Annalisa Bracciale'
p5753
sS'checkin'
p5754
I00
sS'payment'
p5755
S'Paypal'
p5756
sS'date'
p5757
S'20/02/2012'
p5758
sS'email'
p5759
S'jinhio@email.it'
p5760
sS'pdfcode'
p5761
S'AKWX4'
p5762
sS'download'
p5763
I00
sS'trans'
p5764
S''
sS'id'
p5765
I320
sS'sent'
p5766
S'20-02-2012 11:40'
p5767
sa(dp5768
S'name'
p5769
S'Adriana Feerraioli'
p5770
sS'checkin'
p5771
I00
sS'payment'
p5772
S'Bank transfer'
p5773
sS'download'
p5774
I00
sS'id'
p5775
I321
sS'pdfcode'
p5776
S'iq0hP'
p5777
sS'date'
p5778
S'20/02/2012'
p5779
sS'trans'
p5780
S''
sS'email'
p5781
S'jinhio@email.it'
p5782
sS'sent'
p5783
S'20-02-2012 11:40'
p5784
sa(dp5785
S'name'
p5786
S'Giorgio Ghezzi'
p5787
sS'checkin'
p5788
I00
sS'payment'
p5789
S'Bank transfer'
p5790
sS'date'
p5791
S'20/02/2012'
p5792
sS'email'
p5793
S'jinhio@email.it'
p5794
sS'pdfcode'
p5795
S'XQZIl'
p5796
sS'download'
p5797
I00
sS'trans'
p5798
S''
sS'id'
p5799
I322
sS'sent'
p5800
S'20-02-2012 11:40'
p5801
sa(dp5802
S'name'
p5803
S'Giorgio Ghezzi'
p5804
sS'checkin'
p5805
I00
sS'payment'
p5806
S'Bank transfer'
p5807
sS'download'
p5808
I00
sS'id'
p5809
I323
sS'pdfcode'
p5810
S'P4h53'
p5811
sS'date'
p5812
S'20/02/2012'
p5813
sS'trans'
p5814
S''
sS'email'
p5815
S'jinhio@email.it'
p5816
sS'sent'
p5817
S'20-02-2012 11:40'
p5818
sa(dp5819
S'name'
p5820
S'michele morelli'
p5821
sS'checkin'
p5822
I00
sS'payment'
p5823
S'Bank transfer'
p5824
sS'date'
p5825
S'20/02/2012'
p5826
sS'email'
p5827
S'michemorelli@yahoo.co.uk'
p5828
sS'pdfcode'
p5829
S'yt5Kz'
p5830
sS'download'
p5831
S'22-02-2012 09:49'
p5832
sS'trans'
p5833
S'000000000692098 '
p5834
sS'id'
p5835
I324
sS'sent'
p5836
S'20-02-2012 17:10'
p5837
sa(dp5838
S'name'
p5839
S'andrea bellino '
p5840
sS'checkin'
p5841
I00
sS'payment'
p5842
S'Paypal'
p5843
sS'date'
p5844
S'20/02/2012'
p5845
sS'email'
p5846
S'andrea.bellino75@gmail.com'
p5847
sS'pdfcode'
p5848
S'dKroC'
p5849
sS'download'
p5850
S'25-02-2012 15:53'
p5851
sS'trans'
p5852
S''
sS'id'
p5853
I325
sS'sent'
p5854
S'20-02-2012 23:57'
p5855
sa(dp5856
S'name'
p5857
S'Marcus Vinicius Marques Pessoa '
p5858
sS'checkin'
p5859
I00
sS'payment'
p5860
S'Paypal'
p5861
sS'download'
p5862
I00
sS'id'
p5863
I326
sS'pdfcode'
p5864
S'AfuLd'
p5865
sS'date'
p5866
S'20/02/2012'
p5867
sS'trans'
p5868
S''
sS'email'
p5869
S'mavipe@hotmail.it'
p5870
sS'sent'
p5871
S'20-02-2012 23:58'
p5872
sa(dp5873
S'name'
p5874
S'Roberta Deiana '
p5875
sS'checkin'
p5876
I00
sS'payment'
p5877
S'Paypal'
p5878
sS'date'
p5879
S'20/02/2012'
p5880
sS'email'
p5881
S'rob.deiana@gmail.com'
p5882
sS'pdfcode'
p5883
S'ChuV8'
p5884
sS'download'
p5885
S'25-02-2012 21:49'
p5886
sS'trans'
p5887
S''
sS'id'
p5888
I327
sS'sent'
p5889
S'20-02-2012 23:58'
p5890
sa(dp5891
S'name'
p5892
S'Roberta Deiana '
p5893
sS'checkin'
p5894
I00
sS'payment'
p5895
S'Paypal'
p5896
sS'download'
p5897
S'25-02-2012 21:50'
p5898
sS'id'
p5899
I328
sS'pdfcode'
p5900
S'6E2Jm'
p5901
sS'date'
p5902
S'20/02/2012'
p5903
sS'trans'
p5904
S''
sS'email'
p5905
S'rob.deiana@gmail.com'
p5906
sS'sent'
p5907
S'20-02-2012 23:58'
p5908
sa(dp5909
S'name'
p5910
S'paolo traversa '
p5911
sS'checkin'
p5912
I00
sS'payment'
p5913
S'Paypal'
p5914
sS'date'
p5915
S'20/02/2012'
p5916
sS'email'
p5917
S'7lilloz@gmail.com'
p5918
sS'pdfcode'
p5919
S'JVJGc'
p5920
sS'download'
p5921
S'25-02-2012 11:17'
p5922
sS'trans'
p5923
S''
sS'id'
p5924
I329
sS'sent'
p5925
S'20-02-2012 23:58'
p5926
sa(dp5927
S'name'
p5928
S'paolo traversa '
p5929
sS'checkin'
p5930
I00
sS'payment'
p5931
S'Paypal'
p5932
sS'download'
p5933
S'25-02-2012 11:19'
p5934
sS'id'
p5935
I330
sS'pdfcode'
p5936
S'vMmCW'
p5937
sS'date'
p5938
S'20/02/2012'
p5939
sS'trans'
p5940
S''
sS'email'
p5941
S'7lilloz@gmail.com'
p5942
sS'sent'
p5943
S'20-02-2012 23:58'
p5944
sa(dp5945
S'name'
p5946
S'paolo traversa '
p5947
sS'checkin'
p5948
I00
sS'payment'
p5949
S'Paypal'
p5950
sS'date'
p5951
S'20/02/2012'
p5952
sS'email'
p5953
S'7lilloz@gmail.com'
p5954
sS'pdfcode'
p5955
S'oCtMq'
p5956
sS'download'
p5957
S'25-02-2012 11:20'
p5958
sS'trans'
p5959
S''
sS'id'
p5960
I331
sS'sent'
p5961
S'20-02-2012 23:58'
p5962
sa(dp5963
S'name'
p5964
S'paolo traversa '
p5965
sS'checkin'
p5966
I00
sS'payment'
p5967
S'Paypal'
p5968
sS'download'
p5969
S'25-02-2012 11:21'
p5970
sS'id'
p5971
I332
sS'pdfcode'
p5972
S'nAFrk'
p5973
sS'date'
p5974
S'20/02/2012'
p5975
sS'trans'
p5976
S''
sS'email'
p5977
S'7lilloz@gmail.com'
p5978
sS'sent'
p5979
S'20-02-2012 23:58'
p5980
sa(dp5981
S'name'
p5982
S'maurizio carsana '
p5983
sS'checkin'
p5984
I00
sS'payment'
p5985
S'Paypal'
p5986
sS'date'
p5987
S'20/02/2012'
p5988
sS'email'
p5989
S'supermaury83@gmail.com'
p5990
sS'pdfcode'
p5991
S'wFQmt'
p5992
sS'download'
p5993
S'21-02-2012 09:56'
p5994
sS'trans'
p5995
S''
sS'id'
p5996
I333
sS'sent'
p5997
S'20-02-2012 23:59'
p5998
sa(dp5999
S'name'
p6000
S'maurizio carsana '
p6001
sS'checkin'
p6002
I00
sS'payment'
p6003
S'Paypal'
p6004
sS'download'
p6005
S'21-02-2012 09:56'
p6006
sS'id'
p6007
I334
sS'pdfcode'
p6008
S'sPJrf'
p6009
sS'date'
p6010
S'20/02/2012'
p6011
sS'trans'
p6012
S''
sS'email'
p6013
S'supermaury83@gmail.com'
p6014
sS'sent'
p6015
S'20-02-2012 23:59'
p6016
sa(dp6017
S'name'
p6018
S'maurizio carsana '
p6019
sS'checkin'
p6020
I00
sS'payment'
p6021
S'Paypal'
p6022
sS'date'
p6023
S'20/02/2012'
p6024
sS'email'
p6025
S'supermaury83@gmail.com'
p6026
sS'pdfcode'
p6027
S'vb9c9'
p6028
sS'download'
p6029
S'21-02-2012 09:57'
p6030
sS'trans'
p6031
S''
sS'id'
p6032
I335
sS'sent'
p6033
S'20-02-2012 23:59'
p6034
sa(dp6035
S'name'
p6036
S'SEBASTIEN LEVY '
p6037
sS'checkin'
p6038
I00
sS'payment'
p6039
S'Paypal'
p6040
sS'download'
p6041
S'25-02-2012 20:34'
p6042
sS'id'
p6043
I336
sS'pdfcode'
p6044
S'ojPvY'
p6045
sS'date'
p6046
S'20/02/2012'
p6047
sS'trans'
p6048
S''
sS'email'
p6049
S'levy.seb@gmail.com'
p6050
sS'sent'
p6051
S'20-02-2012 23:59'
p6052
sa(dp6053
S'name'
p6054
S'Umberto Ferrara '
p6055
sS'checkin'
p6056
I00
sS'payment'
p6057
S'Paypal'
p6058
sS'date'
p6059
S'20/02/2012'
p6060
sS'email'
p6061
S'inbilico77@hotmail.it'
p6062
sS'pdfcode'
p6063
S'2bzEb'
p6064
sS'download'
p6065
S'25-02-2012 19:21'
p6066
sS'trans'
p6067
S''
sS'id'
p6068
I337
sS'sent'
p6069
S'20-02-2012 23:59'
p6070
sa(dp6071
S'name'
p6072
S'giuseppe sabini'
p6073
sS'checkin'
p6074
I00
sS'payment'
p6075
S'Paypal'
p6076
sS'date'
p6077
S'20/02/2012'
p6078
sS'email'
p6079
S'peppes08@libero.it'
p6080
sS'pdfcode'
p6081
S'CJevn'
p6082
sS'download'
p6083
S'21-02-2012 18:21'
p6084
sS'trans'
p6085
S''
sS'id'
p6086
I338
sS'sent'
p6087
S'21-02-2012 12:41'
p6088
sa(dp6089
S'name'
p6090
S'alessandro antonarelli '
p6091
sS'checkin'
p6092
I00
sS'payment'
p6093
S'Paypal'
p6094
sS'download'
p6095
S'25-02-2012 23:15'
p6096
sS'id'
p6097
I339
sS'pdfcode'
p6098
S'zyfUm'
p6099
sS'date'
p6100
S'20/02/2012'
p6101
sS'trans'
p6102
S''
sS'email'
p6103
S'franziska.mein.liebe@hotmail.it'
p6104
sS'sent'
p6105
S'21-02-2012 12:41'
p6106
sa(dp6107
S'name'
p6108
S'maurizio carsana '
p6109
sS'checkin'
p6110
I00
sS'payment'
p6111
S'Paypal'
p6112
sS'date'
p6113
S'20/02/2012'
p6114
sS'email'
p6115
S'supermaury83@gmail.com'
p6116
sS'pdfcode'
p6117
S'Eurw4'
p6118
sS'download'
p6119
S'21-02-2012 14:02'
p6120
sS'trans'
p6121
S''
sS'id'
p6122
I341
sS'sent'
p6123
S'21-02-2012 12:41'
p6124
sa(dp6125
S'name'
p6126
S'maurizio carsana '
p6127
sS'checkin'
p6128
I00
sS'payment'
p6129
S'Paypal'
p6130
sS'download'
p6131
S'21-02-2012 14:03'
p6132
sS'id'
p6133
I342
sS'pdfcode'
p6134
S'nJYB7'
p6135
sS'date'
p6136
S'20/02/2012'
p6137
sS'trans'
p6138
S''
sS'email'
p6139
S'supermaury83@gmail.com'
p6140
sS'sent'
p6141
S'21-02-2012 12:41'
p6142
sa(dp6143
S'name'
p6144
S'maurizio carsana '
p6145
sS'checkin'
p6146
I00
sS'payment'
p6147
S'Paypal'
p6148
sS'date'
p6149
S'20/02/2012'
p6150
sS'email'
p6151
S'supermaury83@gmail.com'
p6152
sS'pdfcode'
p6153
S'SaZVH'
p6154
sS'download'
p6155
S'21-02-2012 14:03'
p6156
sS'trans'
p6157
S''
sS'id'
p6158
I343
sS'sent'
p6159
S'21-02-2012 12:41'
p6160
sa(dp6161
S'name'
p6162
S'maurizio carsana '
p6163
sS'checkin'
p6164
I00
sS'payment'
p6165
S'Paypal'
p6166
sS'download'
p6167
S'21-02-2012 14:03'
p6168
sS'id'
p6169
I344
sS'pdfcode'
p6170
S'l1DEu'
p6171
sS'date'
p6172
S'20/02/2012'
p6173
sS'trans'
p6174
S''
sS'email'
p6175
S'supermaury83@gmail.com'
p6176
sS'sent'
p6177
S'21-02-2012 12:41'
p6178
sa(dp6179
S'name'
p6180
S'emanuele schivo '
p6181
sS'checkin'
p6182
I00
sS'payment'
p6183
S'Paypal'
p6184
sS'download'
p6185
S'21-02-2012 17:34'
p6186
sS'id'
p6187
I345
sS'pdfcode'
p6188
S'MMG7P'
p6189
sS'date'
p6190
S'20/02/2012'
p6191
sS'trans'
p6192
S''
sS'email'
p6193
S'emax06@libero.it'
p6194
sS'sent'
p6195
S'21-02-2012 12:41'
p6196
sa(dp6197
S'name'
p6198
S'emanuele schivo '
p6199
sS'checkin'
p6200
I00
sS'payment'
p6201
S'Paypal'
p6202
sS'date'
p6203
S'20/02/2012'
p6204
sS'email'
p6205
S'emax06@libero.it'
p6206
sS'pdfcode'
p6207
S'kwk8W'
p6208
sS'download'
p6209
S'21-02-2012 17:34'
p6210
sS'trans'
p6211
S''
sS'id'
p6212
I346
sS'sent'
p6213
S'21-02-2012 12:41'
p6214
sa(dp6215
S'name'
p6216
S'giovanni angelini '
p6217
sS'checkin'
p6218
I00
sS'payment'
p6219
S'Paypal'
p6220
sS'download'
p6221
S'22-02-2012 09:43'
p6222
sS'id'
p6223
I347
sS'pdfcode'
p6224
S'9fvZG'
p6225
sS'date'
p6226
S'20/02/2012'
p6227
sS'trans'
p6228
S''
sS'email'
p6229
S'thefusion73@yahoo.it'
p6230
sS'sent'
p6231
S'21-02-2012 12:42'
p6232
sa(dp6233
S'name'
p6234
S'gianfranco sgro '
p6235
sS'checkin'
p6236
I00
sS'payment'
p6237
S'Paypal'
p6238
sS'date'
p6239
S'20/02/2012'
p6240
sS'email'
p6241
S'milanolivex@yahoo.it'
p6242
sS'pdfcode'
p6243
S'PZFK1'
p6244
sS'download'
p6245
S'23-02-2012 03:32'
p6246
sS'trans'
p6247
S''
sS'id'
p6248
I348
sS'sent'
p6249
S'21-02-2012 12:42'
p6250
sa(dp6251
S'name'
p6252
S'gianfranco sgro '
p6253
sS'checkin'
p6254
I00
sS'payment'
p6255
S'Paypal'
p6256
sS'download'
p6257
S'23-02-2012 03:36'
p6258
sS'id'
p6259
I349
sS'pdfcode'
p6260
S'Ytg1C'
p6261
sS'date'
p6262
S'20/02/2012'
p6263
sS'trans'
p6264
S''
sS'email'
p6265
S'milanolivex@yahoo.it'
p6266
sS'sent'
p6267
S'21-02-2012 12:42'
p6268
sa(dp6269
S'name'
p6270
S'Giovanni Di Naro '
p6271
sS'checkin'
p6272
I00
sS'payment'
p6273
S'Paypal'
p6274
sS'date'
p6275
S'20/02/2012'
p6276
sS'email'
p6277
S'giovannidinaro@gmail.com'
p6278
sS'pdfcode'
p6279
S'yAHCf'
p6280
sS'download'
p6281
S'21-02-2012 12:52'
p6282
sS'trans'
p6283
S''
sS'id'
p6284
I350
sS'sent'
p6285
S'21-02-2012 12:42'
p6286
sa(dp6287
S'name'
p6288
S'Giovanni Di Naro '
p6289
sS'checkin'
p6290
I00
sS'payment'
p6291
S'Paypal'
p6292
sS'download'
p6293
S'21-02-2012 12:52'
p6294
sS'id'
p6295
I351
sS'pdfcode'
p6296
S'y7LbD'
p6297
sS'date'
p6298
S'20/02/2012'
p6299
sS'trans'
p6300
S''
sS'email'
p6301
S'giovannidinaro@gmail.com'
p6302
sS'sent'
p6303
S'21-02-2012 12:42'
p6304
sa(dp6305
S'name'
p6306
S'Strega Scarlatta'
p6307
sS'checkin'
p6308
I00
sS'payment'
p6309
S'Bank transfer'
p6310
sS'date'
p6311
S'21/02/2012'
p6312
sS'email'
p6313
S'jinhio@email.it'
p6314
sS'pdfcode'
p6315
S'wFJzN'
p6316
sS'download'
p6317
I00
sS'trans'
p6318
S'contanti a GHEZZI'
p6319
sS'id'
p6320
I352
sS'sent'
p6321
S'21-02-2012 13:34'
p6322
sa(dp6323
S'name'
p6324
S'Enzo di Paolo'
p6325
sS'checkin'
p6326
I00
sS'payment'
p6327
S'Bank transfer'
p6328
sS'download'
p6329
I00
sS'id'
p6330
I353
sS'pdfcode'
p6331
S'4oYch'
p6332
sS'date'
p6333
S'21/02/2012'
p6334
sS'trans'
p6335
S'contanti a GHEZZI'
p6336
sS'email'
p6337
S'jinhio@email.it'
p6338
sS'sent'
p6339
S'21-02-2012 13:34'
p6340
sa(dp6341
S'name'
p6342
S'Gianni Manzari'
p6343
sS'checkin'
p6344
I00
sS'payment'
p6345
S'Bank transfer'
p6346
sS'date'
p6347
S'21/02/2012'
p6348
sS'email'
p6349
S'jinhio@email.it'
p6350
sS'pdfcode'
p6351
S'Yzilx'
p6352
sS'download'
p6353
I00
sS'trans'
p6354
S'contanti a GHEZZI'
p6355
sS'id'
p6356
I354
sS'sent'
p6357
S'21-02-2012 13:34'
p6358
sa(dp6359
S'name'
p6360
S'giulio biscaro'
p6361
sS'checkin'
p6362
I00
sS'payment'
p6363
S'Bank transfer'
p6364
sS'download'
p6365
S'22-02-2012 10:01'
p6366
sS'id'
p6367
I355
sS'pdfcode'
p6368
S'0yZlR'
p6369
sS'date'
p6370
S''
sS'trans'
p6371
S''
sS'email'
p6372
S'giulio.biscaro@gmail.com'
p6373
sS'sent'
p6374
S'22-02-2012 10:00'
p6375
sa(dp6376
S'name'
p6377
S'giulio biscaro'
p6378
sS'checkin'
p6379
I00
sS'payment'
p6380
S'Bank transfer'
p6381
sS'date'
p6382
S''
sS'email'
p6383
S'giulio.biscaro@gmail.com'
p6384
sS'pdfcode'
p6385
S'X93cJ'
p6386
sS'download'
p6387
S'22-02-2012 10:02'
p6388
sS'trans'
p6389
S''
sS'id'
p6390
I356
sS'sent'
p6391
S'22-02-2012 10:00'
p6392
sa(dp6393
S'name'
p6394
S'eugenio de giudici '
p6395
sS'checkin'
p6396
I00
sS'payment'
p6397
S'Paypal'
p6398
sS'download'
p6399
S'22-02-2012 18:37'
p6400
sS'id'
p6401
I357
sS'pdfcode'
p6402
S'pO4zm'
p6403
sS'date'
p6404
S'21/02/2012'
p6405
sS'trans'
p6406
S''
sS'email'
p6407
S'eugeniodegiudici@email.it'
p6408
sS'sent'
p6409
S'22-02-2012 14:31'
p6410
sa(dp6411
S'name'
p6412
S'eugenio de giudici '
p6413
sS'checkin'
p6414
I00
sS'payment'
p6415
S'Paypal'
p6416
sS'date'
p6417
S'21/02/2012'
p6418
sS'email'
p6419
S'eugeniodegiudici@email.it'
p6420
sS'pdfcode'
p6421
S'jgaSP'
p6422
sS'download'
p6423
S'22-02-2012 18:37'
p6424
sS'trans'
p6425
S''
sS'id'
p6426
I358
sS'sent'
p6427
S'22-02-2012 14:32'
p6428
sa(dp6429
S'name'
p6430
S'eugenio de giudici '
p6431
sS'checkin'
p6432
I00
sS'payment'
p6433
S'Paypal'
p6434
sS'download'
p6435
S'22-02-2012 18:41'
p6436
sS'id'
p6437
I359
sS'pdfcode'
p6438
S'4T1nY'
p6439
sS'date'
p6440
S'21/02/2012'
p6441
sS'trans'
p6442
S''
sS'email'
p6443
S'eugeniodegiudici@email.it'
p6444
sS'sent'
p6445
S'22-02-2012 14:32'
p6446
sa(dp6447
S'name'
p6448
S'Melinda McKee '
p6449
sS'checkin'
p6450
I00
sS'payment'
p6451
S'Paypal'
p6452
sS'date'
p6453
S'21/02/2012'
p6454
sS'email'
p6455
S'noturstar23@aol.com'
p6456
sS'pdfcode'
p6457
S'PXEAS'
p6458
sS'download'
p6459
S'25-02-2012 14:09'
p6460
sS'trans'
p6461
S''
sS'id'
p6462
I360
sS'sent'
p6463
S'22-02-2012 14:32'
p6464
sa(dp6465
S'name'
p6466
S'Melinda McKee '
p6467
sS'checkin'
p6468
I00
sS'payment'
p6469
S'Paypal'
p6470
sS'download'
p6471
S'25-02-2012 14:08'
p6472
sS'id'
p6473
I361
sS'pdfcode'
p6474
S'JK3Ar'
p6475
sS'date'
p6476
S'21/02/2012'
p6477
sS'trans'
p6478
S''
sS'email'
p6479
S'noturstar23@aol.com'
p6480
sS'sent'
p6481
S'22-02-2012 14:32'
p6482
sa(dp6483
S'name'
p6484
S'Maria Centonze'
p6485
sS'checkin'
p6486
I00
sS'payment'
p6487
S'Paypal'
p6488
sS'date'
p6489
S'22/02/2012'
p6490
sS'email'
p6491
S'marias100@virgilio.it'
p6492
sS'pdfcode'
p6493
S'Kyguq'
p6494
sS'download'
p6495
S'22-02-2012 14:48'
p6496
sS'trans'
p6497
S'contanti a Gianpaolo'
p6498
sS'id'
p6499
I362
sS'sent'
p6500
S'22-02-2012 14:04'
p6501
sa(dp6502
S'name'
p6503
S'Maria Centonze'
p6504
sS'checkin'
p6505
I00
sS'payment'
p6506
S'Paypal'
p6507
sS'download'
p6508
S'22-02-2012 14:48'
p6509
sS'id'
p6510
I363
sS'pdfcode'
p6511
S'dq29S'
p6512
sS'date'
p6513
S'22/02/2012'
p6514
sS'trans'
p6515
S'contanti a Gianpaolo'
p6516
sS'email'
p6517
S'marias100@virgilio.it'
p6518
sS'sent'
p6519
S'22-02-2012 14:32'
p6520
sa(dp6521
S'name'
p6522
S'Maria Centonze'
p6523
sS'checkin'
p6524
I00
sS'payment'
p6525
S'Paypal'
p6526
sS'date'
p6527
S'22/02/2012'
p6528
sS'email'
p6529
S'marias100@virgilio.it'
p6530
sS'pdfcode'
p6531
S'NU9SD'
p6532
sS'download'
p6533
S'22-02-2012 14:48'
p6534
sS'trans'
p6535
S'contanti a Gianpaolo'
p6536
sS'id'
p6537
I364
sS'sent'
p6538
S'22-02-2012 14:32'
p6539
sa(dp6540
S'name'
p6541
S'Maria Centonze'
p6542
sS'checkin'
p6543
I00
sS'payment'
p6544
S'Paypal'
p6545
sS'download'
p6546
S'22-02-2012 14:49'
p6547
sS'id'
p6548
I365
sS'pdfcode'
p6549
S'rpgkm'
p6550
sS'date'
p6551
S'22/02/2012'
p6552
sS'trans'
p6553
S'contanti a Gianpaolo'
p6554
sS'email'
p6555
S'marias100@virgilio.it'
p6556
sS'sent'
p6557
S'22-02-2012 14:32'
p6558
sa(dp6559
S'name'
p6560
S'Maria Centonze'
p6561
sS'checkin'
p6562
I00
sS'payment'
p6563
S'Paypal'
p6564
sS'date'
p6565
S'22/02/2012'
p6566
sS'email'
p6567
S'marias100@virgilio.it'
p6568
sS'pdfcode'
p6569
S'DMuuO'
p6570
sS'download'
p6571
S'24-02-2012 10:20'
p6572
sS'trans'
p6573
S'contanti a Gianpaolo'
p6574
sS'id'
p6575
I366
sS'sent'
p6576
S'22-02-2012 14:32'
p6577
sa(dp6578
S'name'
p6579
S'Kojo Levente Kadar'
p6580
sS'checkin'
p6581
I00
sS'payment'
p6582
S'Bank transfer'
p6583
sS'date'
p6584
S'22/02/2012'
p6585
sS'email'
p6586
S'nikojo7@gmail.com'
p6587
sS'pdfcode'
p6588
S'PZEtK'
p6589
sS'download'
p6590
S'22-02-2012 18:26'
p6591
sS'trans'
p6592
S'contanti a Kojo'
p6593
sS'id'
p6594
I367
sS'sent'
p6595
S'22-02-2012 14:38'
p6596
sa(dp6597
S'name'
p6598
S'Kojo Zsuzsa Ramocsa'
p6599
sS'checkin'
p6600
I00
sS'payment'
p6601
S'Bank transfer'
p6602
sS'download'
p6603
S'22-02-2012 18:26'
p6604
sS'id'
p6605
I368
sS'pdfcode'
p6606
S'jAUbF'
p6607
sS'date'
p6608
S'22/02/2012'
p6609
sS'trans'
p6610
S'contanti a Kojo'
p6611
sS'email'
p6612
S'nikojo7@gmail.com'
p6613
sS'sent'
p6614
S'22-02-2012 14:38'
p6615
sa(dp6616
S'name'
p6617
S'Kojo Maria Lazarenko'
p6618
sS'checkin'
p6619
I00
sS'payment'
p6620
S'Bank transfer'
p6621
sS'date'
p6622
S'22/02/2012'
p6623
sS'email'
p6624
S'nikojo7@gmail.com'
p6625
sS'pdfcode'
p6626
S'tpjzo'
p6627
sS'download'
p6628
S'22-02-2012 18:24'
p6629
sS'trans'
p6630
S'contanti a Kojo'
p6631
sS'id'
p6632
I369
sS'sent'
p6633
S'22-02-2012 14:38'
p6634
sa(dp6635
S'name'
p6636
S'Kojo Evgeniya Manturova'
p6637
sS'checkin'
p6638
I00
sS'payment'
p6639
S'Bank transfer'
p6640
sS'download'
p6641
S'22-02-2012 18:23'
p6642
sS'id'
p6643
I370
sS'pdfcode'
p6644
S'JOfZ0'
p6645
sS'date'
p6646
S'22/02/2012'
p6647
sS'trans'
p6648
S'contanti a Kojo'
p6649
sS'email'
p6650
S'nikojo7@gmail.com'
p6651
sS'sent'
p6652
S'22-02-2012 14:38'
p6653
sa(dp6654
S'name'
p6655
S'Kojo Elena *Tiger'
p6656
sS'checkin'
p6657
I00
sS'payment'
p6658
S'Bank transfer'
p6659
sS'date'
p6660
S'22/02/2012'
p6661
sS'email'
p6662
S'nikojo7@gmail.com'
p6663
sS'pdfcode'
p6664
S'AbUNm'
p6665
sS'download'
p6666
S'22-02-2012 18:21'
p6667
sS'trans'
p6668
S'contanti a Kojo'
p6669
sS'id'
p6670
I371
sS'sent'
p6671
S'22-02-2012 14:38'
p6672
sa(dp6673
S'name'
p6674
S'Kojo Calley Edlund'
p6675
sS'checkin'
p6676
I00
sS'payment'
p6677
S'Bank transfer'
p6678
sS'download'
p6679
S'22-02-2012 18:19'
p6680
sS'id'
p6681
I372
sS'pdfcode'
p6682
S'7QR60'
p6683
sS'date'
p6684
S'22/02/2012'
p6685
sS'trans'
p6686
S'contanti a Kojo'
p6687
sS'email'
p6688
S'nikojo7@gmail.com'
p6689
sS'sent'
p6690
S'22-02-2012 14:38'
p6691
sa(dp6692
S'name'
p6693
S'Kojo Anna *Edlund'
p6694
sS'checkin'
p6695
I00
sS'payment'
p6696
S'Bank transfer'
p6697
sS'date'
p6698
S'22/02/2012'
p6699
sS'email'
p6700
S'nikojo7@gmail.com'
p6701
sS'pdfcode'
p6702
S'9kqFx'
p6703
sS'download'
p6704
S'22-02-2012 18:17'
p6705
sS'trans'
p6706
S'contanti a Kojo'
p6707
sS'id'
p6708
I373
sS'sent'
p6709
S'22-02-2012 14:39'
p6710
sa(dp6711
S'name'
p6712
S'Kojo Eve Vitrugno'
p6713
sS'checkin'
p6714
I00
sS'payment'
p6715
S'Bank transfer'
p6716
sS'download'
p6717
S'22-02-2012 18:16'
p6718
sS'id'
p6719
I374
sS'pdfcode'
p6720
S'c2CPx'
p6721
sS'date'
p6722
S'22/02/2012'
p6723
sS'trans'
p6724
S'contanti a Kojo'
p6725
sS'email'
p6726
S'nikojo7@gmail.com'
p6727
sS'sent'
p6728
S'22-02-2012 14:39'
p6729
sa(dp6730
S'name'
p6731
S'Kojo Nicol\xc3\xb2 Collura'
p6732
sS'checkin'
p6733
I00
sS'payment'
p6734
S'Bank transfer'
p6735
sS'date'
p6736
S'22/02/2012'
p6737
sS'email'
p6738
S'nikojo7@gmail.com'
p6739
sS'pdfcode'
p6740
S'ym0E1'
p6741
sS'download'
p6742
S'25-02-2012 14:32'
p6743
sS'trans'
p6744
S'contanti a Kojo'
p6745
sS'id'
p6746
I375
sS'sent'
p6747
S'22-02-2012 19:17'
p6748
sa(dp6749
S'name'
p6750
S'Daniela Franz\xc3\xb2'
p6751
sS'checkin'
p6752
I00
sS'payment'
p6753
S'Bank transfer'
p6754
sS'download'
p6755
S'25-02-2012 22:17'
p6756
sS'id'
p6757
I376
sS'pdfcode'
p6758
S'tKfjk'
p6759
sS'date'
p6760
S'22/02/2012'
p6761
sS'trans'
p6762
S'contanti a Gianpaolo*'
p6763
sS'email'
p6764
S'alfadaniela@gmail.com'
p6765
sS'sent'
p6766
S'22-02-2012 18:01'
p6767
sa(dp6768
S'name'
p6769
S'Marco Gloder'
p6770
sS'checkin'
p6771
I00
sS'payment'
p6772
S'Bank transfer'
p6773
sS'date'
p6774
S'22/02/2012'
p6775
sS'email'
p6776
S'spiderman7791@hotmail.com'
p6777
sS'pdfcode'
p6778
S'S00mJ'
p6779
sS'download'
p6780
S'24-02-2012 16:15'
p6781
sS'trans'
p6782
S'contanti a Marco'
p6783
sS'id'
p6784
I377
sS'sent'
p6785
S'22-02-2012 20:37'
p6786
sa(dp6787
S'name'
p6788
S'Marco Gloder'
p6789
sS'checkin'
p6790
I00
sS'payment'
p6791
S'Bank transfer'
p6792
sS'download'
p6793
S'24-02-2012 16:15'
p6794
sS'id'
p6795
I378
sS'pdfcode'
p6796
S'cToxv'
p6797
sS'date'
p6798
S'22/02/2012'
p6799
sS'trans'
p6800
S'contanti a Marco'
p6801
sS'email'
p6802
S'spiderman7791@hotmail.com'
p6803
sS'sent'
p6804
S'22-02-2012 20:37'
p6805
sa(dp6806
S'name'
p6807
S'Marco Gloder'
p6808
sS'checkin'
p6809
I00
sS'payment'
p6810
S'Bank transfer'
p6811
sS'date'
p6812
S'22/02/2012'
p6813
sS'email'
p6814
S'spiderman7791@hotmail.com'
p6815
sS'pdfcode'
p6816
S'BQ7Tu'
p6817
sS'download'
p6818
S'24-02-2012 16:15'
p6819
sS'trans'
p6820
S'contanti a Marco'
p6821
sS'id'
p6822
I379
sS'sent'
p6823
S'22-02-2012 20:37'
p6824
sa(dp6825
S'name'
p6826
S'Marco Gloder'
p6827
sS'checkin'
p6828
I00
sS'payment'
p6829
S'Bank transfer'
p6830
sS'download'
p6831
S'24-02-2012 16:14'
p6832
sS'id'
p6833
I380
sS'pdfcode'
p6834
S'AhfBA'
p6835
sS'date'
p6836
S'22/02/2012'
p6837
sS'trans'
p6838
S'contanti a Marco'
p6839
sS'email'
p6840
S'spiderman7791@hotmail.com'
p6841
sS'sent'
p6842
S'22-02-2012 20:37'
p6843
sa(dp6844
S'name'
p6845
S'Marco Gloder'
p6846
sS'checkin'
p6847
I00
sS'payment'
p6848
S'Bank transfer'
p6849
sS'date'
p6850
S'22/02/2012'
p6851
sS'email'
p6852
S'spiderman7791@hotmail.com'
p6853
sS'pdfcode'
p6854
S'I8HTv'
p6855
sS'download'
p6856
S'24-02-2012 16:14'
p6857
sS'trans'
p6858
S'contanti a Marco'
p6859
sS'id'
p6860
I381
sS'sent'
p6861
S'22-02-2012 20:37'
p6862
sa(dp6863
S'name'
p6864
S'Marco Gloder'
p6865
sS'checkin'
p6866
I00
sS'payment'
p6867
S'Bank transfer'
p6868
sS'download'
p6869
S'24-02-2012 16:14'
p6870
sS'id'
p6871
I382
sS'pdfcode'
p6872
S'ZyXMo'
p6873
sS'date'
p6874
S'22/02/2012'
p6875
sS'trans'
p6876
S'contanti a Marco'
p6877
sS'email'
p6878
S'spiderman7791@hotmail.com'
p6879
sS'sent'
p6880
S'22-02-2012 20:37'
p6881
sa(dp6882
S'name'
p6883
S'Marco Gloder'
p6884
sS'checkin'
p6885
I00
sS'payment'
p6886
S'Bank transfer'
p6887
sS'date'
p6888
S'22/02/2012'
p6889
sS'email'
p6890
S'spiderman7791@hotmail.com'
p6891
sS'pdfcode'
p6892
S'iVMoE'
p6893
sS'download'
p6894
S'24-02-2012 16:14'
p6895
sS'trans'
p6896
S'contanti a Marco'
p6897
sS'id'
p6898
I383
sS'sent'
p6899
S'22-02-2012 20:37'
p6900
sa(dp6901
S'name'
p6902
S'Marco Gloder'
p6903
sS'checkin'
p6904
I00
sS'payment'
p6905
S'Bank transfer'
p6906
sS'download'
p6907
S'24-02-2012 16:14'
p6908
sS'id'
p6909
I384
sS'pdfcode'
p6910
S'QAAXg'
p6911
sS'date'
p6912
S'22/02/2012'
p6913
sS'trans'
p6914
S'contanti a Marco'
p6915
sS'email'
p6916
S'spiderman7791@hotmail.com'
p6917
sS'sent'
p6918
S'22-02-2012 20:37'
p6919
sa(dp6920
S'name'
p6921
S'Marco Gloder'
p6922
sS'checkin'
p6923
I00
sS'payment'
p6924
S'Bank transfer'
p6925
sS'date'
p6926
S'22/02/2012'
p6927
sS'email'
p6928
S'spiderman7791@hotmail.com'
p6929
sS'pdfcode'
p6930
S'Zg8M3'
p6931
sS'download'
p6932
S'24-02-2012 16:14'
p6933
sS'trans'
p6934
S'contanti a Marco'
p6935
sS'id'
p6936
I385
sS'sent'
p6937
S'22-02-2012 20:37'
p6938
sa(dp6939
S'name'
p6940
S'Paola Coletti'
p6941
sS'checkin'
p6942
I00
sS'payment'
p6943
S'Bank transfer'
p6944
sS'download'
p6945
I00
sS'id'
p6946
I386
sS'pdfcode'
p6947
S'TQnos'
p6948
sS'date'
p6949
S'22/02/2012'
p6950
sS'trans'
p6951
S'contanti a GHEZZI'
p6952
sS'email'
p6953
S'jinhio@email.it'
p6954
sS'sent'
p6955
S'23-02-2012 10:52'
p6956
sa(dp6957
S'name'
p6958
S'sabrina tito'
p6959
sS'checkin'
p6960
I00
sS'payment'
p6961
S'Bank transfer'
p6962
sS'download'
p6963
I00
sS'id'
p6964
I387
sS'pdfcode'
p6965
S'WSXtA'
p6966
sS'date'
p6967
S'22/02/2012'
p6968
sS'trans'
p6969
S'contanti a GHEZZI'
p6970
sS'email'
p6971
S'jinhio@email.it'
p6972
sS'sent'
p6973
S'23-02-2012 11:06'
p6974
sa(dp6975
S'name'
p6976
S'Giorgio Ghezzi'
p6977
sS'checkin'
p6978
I00
sS'payment'
p6979
S'Bank transfer'
p6980
sS'download'
p6981
I00
sS'id'
p6982
I388
sS'pdfcode'
p6983
S'qzl1R'
p6984
sS'date'
p6985
S'22/02/2012'
p6986
sS'trans'
p6987
S'contanti a GHEZZI'
p6988
sS'email'
p6989
S'jinhio@email.it'
p6990
sS'sent'
p6991
S'24-02-2012 16:08'
p6992
sa(dp6993
S'name'
p6994
S''
sS'checkin'
p6995
I00
sS'payment'
p6996
S'Bank transfer'
p6997
sS'date'
p6998
S''
sS'email'
p6999
S''
sS'pdfcode'
p7000
S'KSC78'
p7001
sS'download'
p7002
I00
sS'trans'
p7003
S''
sS'id'
p7004
I389
sS'sent'
p7005
I00
sa(dp7006
S'name'
p7007
S''
sS'checkin'
p7008
I00
sS'payment'
p7009
S'Bank transfer'
p7010
sS'date'
p7011
S''
sS'email'
p7012
S''
sS'pdfcode'
p7013
S'RDXXt'
p7014
sS'download'
p7015
I00
sS'trans'
p7016
S''
sS'id'
p7017
I390
sS'sent'
p7018
I00
sasg8
S'Off'
p7019
s.